; ModuleID = 'bundle/model_69.bc'
source_filename = "llvm-link"
target datalayout = "e-m:e-p:32:32-Fi8-i64:64-v128:64:128-a:0:32-n32-S64"
target triple = "arm-m4-unknown"

$_Z12libjit_getXYPKmmm = comdat any

@constWeightsBaseAddress = local_unnamed_addr global i8* null, !dbg !0, !dbg !6
@mutableWeightsBaseAddress = local_unnamed_addr global i8* null, !dbg !13
@activationsBaseAddress = local_unnamed_addr global i8* null
@0 = internal constant [2 x i64] [i64 1, i64 10]
@1 = internal constant [2 x i64] [i64 1, i64 784]
@2 = internal constant [2 x i64] [i64 784, i64 10]

; Function Attrs: noinline norecurse nounwind readonly willreturn
define internal fastcc i64 @_Z12libjit_getXYPKmmm(i64* nocapture readonly %0, i64 %1, i64 %2) unnamed_addr #0 comdat !dbg !1259 {
  call void @llvm.dbg.value(metadata i64* undef, metadata !1262, metadata !DIExpression()), !dbg !1263
  call void @llvm.dbg.value(metadata i64 %1, metadata !1264, metadata !DIExpression()), !dbg !1263
  call void @llvm.dbg.value(metadata i64 %2, metadata !1265, metadata !DIExpression()), !dbg !1263
  %4 = getelementptr inbounds i64, i64* %0, i32 1, !dbg !1266
  %5 = load i64, i64* %4, align 8, !dbg !1266
  %6 = mul i64 %5, %1, !dbg !1267
  %7 = add i64 %6, %2, !dbg !1268
  ret i64 %7, !dbg !1269
}

; Function Attrs: nofree noinline norecurse nounwind
define internal fastcc void @libjit_fc_i8_i32(i8* nocapture %0, i8* nocapture readonly %1, i8* nocapture readonly %2, i32* nocapture readonly %3) unnamed_addr #1 !dbg !1270 {
  call void @llvm.dbg.value(metadata i8* undef, metadata !1277, metadata !DIExpression()), !dbg !1278
  call void @llvm.dbg.value(metadata i8* undef, metadata !1279, metadata !DIExpression()), !dbg !1278
  call void @llvm.dbg.value(metadata i8* undef, metadata !1280, metadata !DIExpression()), !dbg !1278
  call void @llvm.dbg.value(metadata i32* undef, metadata !1281, metadata !DIExpression()), !dbg !1278
  call void @llvm.dbg.value(metadata i64* undef, metadata !1282, metadata !DIExpression()), !dbg !1278
  call void @llvm.dbg.value(metadata i64* undef, metadata !1283, metadata !DIExpression()), !dbg !1278
  call void @llvm.dbg.value(metadata i64* undef, metadata !1284, metadata !DIExpression()), !dbg !1278
  call void @llvm.dbg.value(metadata i64* undef, metadata !1285, metadata !DIExpression()), !dbg !1278
  call void @llvm.dbg.value(metadata i32 -128, metadata !1286, metadata !DIExpression()), !dbg !1278
  call void @llvm.dbg.value(metadata i32 -128, metadata !1287, metadata !DIExpression()), !dbg !1278
  call void @llvm.dbg.value(metadata i32 0, metadata !1288, metadata !DIExpression()), !dbg !1278
  call void @llvm.dbg.value(metadata i32 0, metadata !1289, metadata !DIExpression()), !dbg !1278
  call void @llvm.dbg.value(metadata i32 0, metadata !1290, metadata !DIExpression()), !dbg !1278
  call void @llvm.dbg.value(metadata i32 0, metadata !1291, metadata !DIExpression()), !dbg !1278
  call void @llvm.dbg.value(metadata i32 1, metadata !1292, metadata !DIExpression()), !dbg !1278
  call void @llvm.dbg.value(metadata i32 5, metadata !1293, metadata !DIExpression()), !dbg !1278
  call void @llvm.dbg.value(metadata i32 15, metadata !1294, metadata !DIExpression()), !dbg !1278
  call void @llvm.dbg.value(metadata i32 267, metadata !1295, metadata !DIExpression()), !dbg !1278
  tail call fastcc void @_ZN12_GLOBAL__N_117libjit_fc_genericIaiEEvPT_PKS1_S4_PKT0_PKmS9_S9_S9_iiiiiiiiii(i8* %0, i8* %1, i8* %2, i32* %3), !dbg !1296
  ret void, !dbg !1297
}

; Function Attrs: nofree noinline norecurse nounwind
define internal fastcc void @_ZN12_GLOBAL__N_117libjit_fc_genericIaiEEvPT_PKS1_S4_PKT0_PKmS9_S9_S9_iiiiiiiiii(i8* nocapture %0, i8* nocapture readonly %1, i8* nocapture readonly %2, i32* nocapture readonly %3) unnamed_addr #1 !dbg !1298 {
.preheader.lr.ph:
  call void @llvm.dbg.value(metadata i8* undef, metadata !1308, metadata !DIExpression()), !dbg !1309
  call void @llvm.dbg.value(metadata i8* undef, metadata !1310, metadata !DIExpression()), !dbg !1309
  call void @llvm.dbg.value(metadata i8* undef, metadata !1311, metadata !DIExpression()), !dbg !1309
  call void @llvm.dbg.value(metadata i32* undef, metadata !1312, metadata !DIExpression()), !dbg !1309
  call void @llvm.dbg.value(metadata i64* undef, metadata !1313, metadata !DIExpression()), !dbg !1309
  call void @llvm.dbg.value(metadata i64* undef, metadata !1314, metadata !DIExpression()), !dbg !1309
  call void @llvm.dbg.value(metadata i64* undef, metadata !1315, metadata !DIExpression()), !dbg !1309
  call void @llvm.dbg.value(metadata i64* undef, metadata !1316, metadata !DIExpression()), !dbg !1309
  call void @llvm.dbg.value(metadata i32 -128, metadata !1317, metadata !DIExpression()), !dbg !1309
  call void @llvm.dbg.value(metadata i32 -128, metadata !1318, metadata !DIExpression()), !dbg !1309
  call void @llvm.dbg.value(metadata i32 0, metadata !1319, metadata !DIExpression()), !dbg !1309
  call void @llvm.dbg.value(metadata i32 0, metadata !1320, metadata !DIExpression()), !dbg !1309
  call void @llvm.dbg.value(metadata i32 0, metadata !1321, metadata !DIExpression()), !dbg !1309
  call void @llvm.dbg.value(metadata i32 0, metadata !1322, metadata !DIExpression()), !dbg !1309
  call void @llvm.dbg.value(metadata i32 1, metadata !1323, metadata !DIExpression()), !dbg !1309
  call void @llvm.dbg.value(metadata i32 5, metadata !1324, metadata !DIExpression()), !dbg !1309
  call void @llvm.dbg.value(metadata i32 15, metadata !1325, metadata !DIExpression()), !dbg !1309
  call void @llvm.dbg.value(metadata i32 267, metadata !1326, metadata !DIExpression()), !dbg !1309
  call void @llvm.dbg.value(metadata i64 784, metadata !1327, metadata !DIExpression()), !dbg !1309
  call void @llvm.dbg.value(metadata i64 1, metadata !1328, metadata !DIExpression()), !dbg !1309
  call void @llvm.dbg.value(metadata i64 10, metadata !1329, metadata !DIExpression()), !dbg !1309
  call void @llvm.dbg.value(metadata i64 0, metadata !1330, metadata !DIExpression()), !dbg !1332
  call void @llvm.dbg.value(metadata i64 0, metadata !1330, metadata !DIExpression()), !dbg !1332
  call void @llvm.dbg.value(metadata i64 0, metadata !1333, metadata !DIExpression()), !dbg !1337
  br label %.lr.ph6, !dbg !1338

.lr.ph6:                                          ; preds = %._crit_edge, %.preheader.lr.ph
  %.025 = phi i64 [ %35, %._crit_edge ], [ 0, %.preheader.lr.ph ], !dbg !1338
  call void @llvm.dbg.value(metadata i64 %.025, metadata !1333, metadata !DIExpression()), !dbg !1337
  %4 = trunc i64 %.025 to i32, !dbg !1339
  %5 = getelementptr inbounds i32, i32* %3, i32 %4, !dbg !1339
  %6 = load i32, i32* %5, align 4, !dbg !1339
  call void @llvm.dbg.value(metadata i32 %6, metadata !1342, metadata !DIExpression()), !dbg !1349
  call void @llvm.dbg.value(metadata i32 0, metadata !1351, metadata !DIExpression()), !dbg !1349
  call void @llvm.dbg.value(metadata i32 0, metadata !1352, metadata !DIExpression()), !dbg !1349
  call void @llvm.dbg.value(metadata i32 1, metadata !1353, metadata !DIExpression()), !dbg !1349
  call void @llvm.dbg.value(metadata i32 0, metadata !1354, metadata !DIExpression()), !dbg !1349
  call void @llvm.dbg.value(metadata i32 0, metadata !1355, metadata !DIExpression()), !dbg !1349
  call void @llvm.dbg.value(metadata i32 %6, metadata !1356, metadata !DIExpression()), !dbg !1357
  call void @llvm.dbg.value(metadata i64 0, metadata !1358, metadata !DIExpression()), !dbg !1360
  br label %.lr.ph, !dbg !1338

.lr.ph:                                           ; preds = %.lr.ph, %.lr.ph6
  %.04 = phi i64 [ %20, %.lr.ph ], [ 0, %.lr.ph6 ], !dbg !1338
  %.011 = phi i32 [ %19, %.lr.ph ], [ %6, %.lr.ph6 ], !dbg !1338
  call void @llvm.dbg.value(metadata i64 %.04, metadata !1358, metadata !DIExpression()), !dbg !1360
  call void @llvm.dbg.value(metadata i32 %.011, metadata !1356, metadata !DIExpression()), !dbg !1357
  %7 = tail call fastcc i64 @_Z12libjit_getXYPKmmm(i64* getelementptr inbounds ([2 x i64], [2 x i64]* @1, i32 0, i32 0), i64 0, i64 %.04), !dbg !1361
  %8 = trunc i64 %7 to i32, !dbg !1364
  %9 = getelementptr inbounds i8, i8* %1, i32 %8, !dbg !1364
  %10 = load i8, i8* %9, align 1, !dbg !1364
  call void @llvm.dbg.value(metadata i8 %10, metadata !1365, metadata !DIExpression(DW_OP_LLVM_convert, 8, DW_ATE_signed, DW_OP_LLVM_convert, 32, DW_ATE_signed, DW_OP_stack_value)), !dbg !1366
  %11 = tail call fastcc i64 @_Z12libjit_getXYPKmmm(i64* getelementptr inbounds ([2 x i64], [2 x i64]* @2, i32 0, i32 0), i64 %.04, i64 %.025), !dbg !1367
  call void @llvm.dbg.value(metadata i8 undef, metadata !1368, metadata !DIExpression(DW_OP_LLVM_convert, 8, DW_ATE_signed, DW_OP_LLVM_convert, 32, DW_ATE_signed, DW_OP_stack_value)), !dbg !1366
  call void @llvm.dbg.value(metadata i32 undef, metadata !1356, metadata !DIExpression()), !dbg !1357
  %12 = sext i8 %10 to i32, !dbg !1364
  call void @llvm.dbg.value(metadata i32 %12, metadata !1365, metadata !DIExpression()), !dbg !1366
  %13 = add nsw i32 %12, 128, !dbg !1369
  %14 = trunc i64 %11 to i32, !dbg !1370
  %15 = getelementptr inbounds i8, i8* %2, i32 %14, !dbg !1370
  %16 = load i8, i8* %15, align 1, !dbg !1370
  call void @llvm.dbg.value(metadata i8 %16, metadata !1368, metadata !DIExpression(DW_OP_LLVM_convert, 8, DW_ATE_signed, DW_OP_LLVM_convert, 32, DW_ATE_signed, DW_OP_stack_value)), !dbg !1366
  %17 = sext i8 %16 to i32, !dbg !1370
  call void @llvm.dbg.value(metadata i32 %17, metadata !1368, metadata !DIExpression()), !dbg !1366
  %18 = mul nsw i32 %13, %17, !dbg !1371
  %19 = add nsw i32 %18, %.011, !dbg !1372
  call void @llvm.dbg.value(metadata i32 %19, metadata !1356, metadata !DIExpression()), !dbg !1357
  %20 = add nuw nsw i64 %.04, 1, !dbg !1373
  call void @llvm.dbg.value(metadata i64 %20, metadata !1358, metadata !DIExpression()), !dbg !1360
  %21 = icmp ult i64 %.04, 783, !dbg !1374
  br i1 %21, label %.lr.ph, label %._crit_edge, !dbg !1375, !llvm.loop !1376

._crit_edge:                                      ; preds = %.lr.ph
  call void @llvm.dbg.value(metadata i32 %19, metadata !1342, metadata !DIExpression()), !dbg !1379
  call void @llvm.dbg.value(metadata i32 5, metadata !1351, metadata !DIExpression()), !dbg !1379
  call void @llvm.dbg.value(metadata i32 15, metadata !1352, metadata !DIExpression()), !dbg !1379
  call void @llvm.dbg.value(metadata i32 267, metadata !1353, metadata !DIExpression()), !dbg !1379
  call void @llvm.dbg.value(metadata i32 -128, metadata !1354, metadata !DIExpression()), !dbg !1379
  call void @llvm.dbg.value(metadata i32 16384, metadata !1355, metadata !DIExpression()), !dbg !1379
  %22 = ashr i32 %19, 5, !dbg !1381
  %23 = mul nsw i32 %22, 267, !dbg !1382
  %24 = add nsw i32 %23, 16384, !dbg !1383
  %25 = ashr i32 %24, 15, !dbg !1384
  %26 = add nsw i32 %25, -128, !dbg !1385
  call void @llvm.dbg.value(metadata i32 %26, metadata !1386, metadata !DIExpression()), !dbg !1357
  call void @llvm.dbg.value(metadata i32 %26, metadata !1387, metadata !DIExpression()), !dbg !1391
  %27 = icmp sgt i32 %23, 16383, !dbg !1393
  %28 = select i1 %27, i32 %26, i32 -128, !dbg !1393
  %29 = icmp slt i32 %28, 127, !dbg !1393
  %30 = select i1 %29, i32 %28, i32 127, !dbg !1393
  %31 = trunc i32 %30 to i8, !dbg !1393
  %32 = tail call fastcc i64 @_Z12libjit_getXYPKmmm(i64* nonnull getelementptr inbounds ([2 x i64], [2 x i64]* @0, i32 0, i32 0), i64 0, i64 %.025), !dbg !1394
  %33 = trunc i64 %32 to i32, !dbg !1395
  %34 = getelementptr inbounds i8, i8* %0, i32 %33, !dbg !1395
  store i8 %31, i8* %34, align 1, !dbg !1396
  %35 = add nuw nsw i64 %.025, 1, !dbg !1397
  call void @llvm.dbg.value(metadata i64 %35, metadata !1333, metadata !DIExpression()), !dbg !1337
  %36 = icmp ult i64 %.025, 9, !dbg !1398
  br i1 %36, label %.lr.ph6, label %._crit_edge9, !dbg !1399, !llvm.loop !1400

._crit_edge9:                                     ; preds = %._crit_edge
  call void @llvm.dbg.value(metadata i64 1, metadata !1330, metadata !DIExpression()), !dbg !1332
  ret void, !dbg !1402
}

; Function Attrs: alwaysinline nofree norecurse nounwind
define i32 @model_69(i8* %0, i8* %1, i8* %2) local_unnamed_addr #2 !dbg !1403 {
entry:
  call void @llvm.dbg.value(metadata i8* undef, metadata !1408, metadata !DIExpression()), !dbg !1411
  call void @llvm.dbg.value(metadata i8* undef, metadata !1409, metadata !DIExpression()), !dbg !1411
  call void @llvm.dbg.value(metadata i8* undef, metadata !1410, metadata !DIExpression()), !dbg !1411
  store i8* %0, i8** @constWeightsBaseAddress, align 4, !dbg !1411
  store i8* %1, i8** @mutableWeightsBaseAddress, align 4, !dbg !1411
  store i8* %2, i8** @activationsBaseAddress, align 4, !dbg !1411
  %3 = ptrtoint i8* %0 to i32, !dbg !1411
  %4 = ptrtoint i8* %1 to i32, !dbg !1411
  %5 = add i32 %4, 832, !dbg !1412
  %6 = inttoptr i32 %5 to i8*, !dbg !1412
  %7 = add i32 %3, 64, !dbg !1412
  %8 = inttoptr i32 %7 to i8*, !dbg !1412
  %9 = bitcast i8* %0 to i32*, !dbg !1412
  tail call fastcc void @libjit_fc_i8_i32(i8* %6, i8* %1, i8* %8, i32* %9) #4, !dbg !1412
  ret i32 0, !dbg !1419
}

; Function Attrs: nofree nosync nounwind readnone speculatable willreturn
declare void @llvm.dbg.value(metadata, metadata, metadata) #3

attributes #0 = { noinline norecurse nounwind readonly willreturn "frame-pointer"="all" }
attributes #1 = { nofree noinline norecurse nounwind "frame-pointer"="all" }
attributes #2 = { alwaysinline nofree norecurse nounwind "frame-pointer"="all" }
attributes #3 = { nofree nosync nounwind readnone speculatable willreturn }
attributes #4 = { nounwind }

!llvm.dbg.cu = !{!21, !1113, !1151, !1175, !1212, !2}
!llvm.ident = !{!1255, !1255, !1255, !1255, !1255}
!llvm.module.flags = !{!1256, !1257, !1258}

!0 = !DIGlobalVariableExpression(var: !1, expr: !DIExpression())
!1 = distinct !DIGlobalVariable(name: "FULLY_CONNECTED_bias", scope: !2, file: !3, type: !18, isLocal: false, isDefinition: true)
!2 = distinct !DICompileUnit(language: DW_LANG_C, file: !3, producer: "Glow Compiler", isOptimized: false, runtimeVersion: 0, emissionKind: FullDebug, enums: !4, globals: !5, dwoId: 1)
!3 = !DIFile(filename: "model_69.glow", directory: "/opt/glow/./bundle")
!4 = !{}
!5 = !{!0, !6, !13}
!6 = !DIGlobalVariableExpression(var: !7, expr: !DIExpression())
!7 = distinct !DIGlobalVariable(name: "functional_157_dense_79_MatMul__1", scope: !2, file: !3, type: !8, isLocal: false, isDefinition: true)
!8 = !DICompositeType(tag: DW_TAG_array_type, baseType: !9, size: 62720, align: 4, elements: !10)
!9 = !DIBasicType(name: "int8", size: 8, encoding: DW_ATE_unsigned)
!10 = !{!11, !12}
!11 = !DISubrange(count: 784, lowerBound: 0)
!12 = !DISubrange(count: 10, lowerBound: 0)
!13 = !DIGlobalVariableExpression(var: !14, expr: !DIExpression())
!14 = distinct !DIGlobalVariable(name: "functional_157_flatten_78_Reshape_tensorview", scope: !2, file: !3, type: !15, isLocal: false, isDefinition: true)
!15 = !DICompositeType(tag: DW_TAG_array_type, baseType: !9, size: 6272, align: 4, elements: !16)
!16 = !{!17, !11}
!17 = !DISubrange(count: 1, lowerBound: 0)
!18 = !DICompositeType(tag: DW_TAG_array_type, baseType: !19, size: 320, align: 4, elements: !20)
!19 = !DIBasicType(name: "int32", size: 32, encoding: DW_ATE_unsigned)
!20 = !{!12}
!21 = distinct !DICompileUnit(language: DW_LANG_C_plus_plus_14, file: !22, producer: "Ubuntu clang version 12.0.0-3ubuntu1~20.04.5", isOptimized: false, runtimeVersion: 0, emissionKind: FullDebug, enums: !23, retainedTypes: !76, globals: !325, imports: !332, splitDebugInlining: false, nameTableKind: None)
!22 = !DIFile(filename: "/opt/glow/lib/Backends/CPU/../../LLVMIRCodeGen/libjit/libjit.cpp", directory: "/opt/glow/lib/Backends/CPU")
!23 = !{!24, !56, !64, !71}
!24 = !DICompositeType(tag: DW_TAG_enumeration_type, name: "ElemKind", scope: !26, file: !25, line: 3310, baseType: !34, size: 8, flags: DIFlagEnumClass, elements: !44)
!25 = !DIFile(filename: "../../LLVMIRCodeGen/libjit/libjit.cpp", directory: "/opt/glow/lib/Backends/CPU")
!26 = distinct !DISubprogram(name: "libjit_dump_tensor_console", scope: !25, file: !25, line: 3303, type: !27, scopeLine: 3307, flags: DIFlagPrototyped, spFlags: DISPFlagDefinition, unit: !21, retainedNodes: !4)
!27 = !DISubroutineType(types: !28)
!28 = !{null, !29, !35, !36, !36, !41}
!29 = !DIDerivedType(tag: DW_TAG_pointer_type, baseType: !30, size: 64)
!30 = !DIDerivedType(tag: DW_TAG_typedef, name: "uint8_t", file: !31, line: 24, baseType: !32)
!31 = !DIFile(filename: "/usr/include/x86_64-linux-gnu/bits/stdint-uintn.h", directory: "")
!32 = !DIDerivedType(tag: DW_TAG_typedef, name: "__uint8_t", file: !33, line: 38, baseType: !34)
!33 = !DIFile(filename: "/usr/include/x86_64-linux-gnu/bits/types.h", directory: "")
!34 = !DIBasicType(name: "unsigned char", size: 8, encoding: DW_ATE_unsigned_char)
!35 = !DIDerivedType(tag: DW_TAG_pointer_type, baseType: !36, size: 64)
!36 = !DIDerivedType(tag: DW_TAG_typedef, name: "dim_t", file: !37, line: 39, baseType: !38)
!37 = !DIFile(filename: "../../LLVMIRCodeGen/libjit/libjit_dim_t.h", directory: "/opt/glow/lib/Backends/CPU")
!38 = !DIDerivedType(tag: DW_TAG_typedef, name: "uint64_t", file: !31, line: 27, baseType: !39)
!39 = !DIDerivedType(tag: DW_TAG_typedef, name: "__uint64_t", file: !33, line: 45, baseType: !40)
!40 = !DIBasicType(name: "long unsigned int", size: 64, encoding: DW_ATE_unsigned)
!41 = !DIDerivedType(tag: DW_TAG_pointer_type, baseType: !42, size: 64)
!42 = !DIDerivedType(tag: DW_TAG_const_type, baseType: !43)
!43 = !DIBasicType(name: "char", size: 8, encoding: DW_ATE_signed_char)
!44 = !{!45, !46, !47, !48, !49, !50, !51, !52, !53, !54, !55}
!45 = !DIEnumerator(name: "FloatTy", value: 0, isUnsigned: true)
!46 = !DIEnumerator(name: "Float16Ty", value: 1, isUnsigned: true)
!47 = !DIEnumerator(name: "BFloat16Ty", value: 2, isUnsigned: true)
!48 = !DIEnumerator(name: "Int8QTy", value: 3, isUnsigned: true)
!49 = !DIEnumerator(name: "UInt8QTy", value: 4, isUnsigned: true)
!50 = !DIEnumerator(name: "Int16QTy", value: 5, isUnsigned: true)
!51 = !DIEnumerator(name: "Int32QTy", value: 6, isUnsigned: true)
!52 = !DIEnumerator(name: "Int32ITy", value: 7, isUnsigned: true)
!53 = !DIEnumerator(name: "Int64ITy", value: 8, isUnsigned: true)
!54 = !DIEnumerator(name: "UInt8FusedQTy", value: 9, isUnsigned: true)
!55 = !DIEnumerator(name: "BoolTy", value: 10, isUnsigned: true)
!56 = distinct !DICompositeType(tag: DW_TAG_enumeration_type, name: "float_denorm_style", scope: !58, file: !57, line: 182, baseType: !59, size: 32, elements: !60, identifier: "_ZTSSt18float_denorm_style")
!57 = !DIFile(filename: "/usr/bin/../lib/gcc/x86_64-linux-gnu/9/../../../../include/c++/9/limits", directory: "")
!58 = !DINamespace(name: "std", scope: null)
!59 = !DIBasicType(name: "int", size: 32, encoding: DW_ATE_signed)
!60 = !{!61, !62, !63}
!61 = !DIEnumerator(name: "denorm_indeterminate", value: -1)
!62 = !DIEnumerator(name: "denorm_absent", value: 0)
!63 = !DIEnumerator(name: "denorm_present", value: 1)
!64 = distinct !DICompositeType(tag: DW_TAG_enumeration_type, name: "float_round_style", scope: !58, file: !57, line: 167, baseType: !59, size: 32, elements: !65, identifier: "_ZTSSt17float_round_style")
!65 = !{!66, !67, !68, !69, !70}
!66 = !DIEnumerator(name: "round_indeterminate", value: -1)
!67 = !DIEnumerator(name: "round_toward_zero", value: 0)
!68 = !DIEnumerator(name: "round_to_nearest", value: 1)
!69 = !DIEnumerator(name: "round_toward_infinity", value: 2)
!70 = !DIEnumerator(name: "round_toward_neg_infinity", value: 3)
!71 = !DICompositeType(tag: DW_TAG_enumeration_type, scope: !58, file: !72, line: 1880, baseType: !73, size: 32, elements: !74)
!72 = !DIFile(filename: "/usr/bin/../lib/gcc/x86_64-linux-gnu/9/../../../../include/c++/9/bits/stl_algo.h", directory: "")
!73 = !DIBasicType(name: "unsigned int", size: 32, encoding: DW_ATE_unsigned)
!74 = !{!75}
!75 = !DIEnumerator(name: "_S_threshold", value: 16, isUnsigned: true)
!76 = !{!77, !30, !78, !82, !86, !88, !91, !36, !92, !38, !24, !94, !35, !95, !96, !97, !101, !102, !103, !98, !104, !85, !109, !29, !41, !168, !40, !59, !169, !178, !185, !192, !198, !206, !258, !217, !274, !303, !279, !319}
!77 = !DIBasicType(name: "float", size: 32, encoding: DW_ATE_float)
!78 = !DIDerivedType(tag: DW_TAG_typedef, name: "int8_t", file: !79, line: 24, baseType: !80)
!79 = !DIFile(filename: "/usr/include/x86_64-linux-gnu/bits/stdint-intn.h", directory: "")
!80 = !DIDerivedType(tag: DW_TAG_typedef, name: "__int8_t", file: !33, line: 37, baseType: !81)
!81 = !DIBasicType(name: "signed char", size: 8, encoding: DW_ATE_signed_char)
!82 = !DIDerivedType(tag: DW_TAG_typedef, name: "ssize_t", file: !83, line: 108, baseType: !84)
!83 = !DIFile(filename: "/usr/include/x86_64-linux-gnu/sys/types.h", directory: "")
!84 = !DIDerivedType(tag: DW_TAG_typedef, name: "__ssize_t", file: !33, line: 193, baseType: !85)
!85 = !DIBasicType(name: "long int", size: 64, encoding: DW_ATE_signed)
!86 = !DIDerivedType(tag: DW_TAG_typedef, name: "size_t", file: !87, line: 46, baseType: !40)
!87 = !DIFile(filename: "/usr/lib/llvm-12/lib/clang/12.0.0/include/stddef.h", directory: "")
!88 = !DIDerivedType(tag: DW_TAG_typedef, name: "sdim_t", file: !37, line: 40, baseType: !89)
!89 = !DIDerivedType(tag: DW_TAG_typedef, name: "int64_t", file: !79, line: 27, baseType: !90)
!90 = !DIDerivedType(tag: DW_TAG_typedef, name: "__int64_t", file: !33, line: 44, baseType: !85)
!91 = !DIBasicType(name: "bool", size: 8, encoding: DW_ATE_boolean)
!92 = !DIDerivedType(tag: DW_TAG_typedef, name: "int32_t", file: !79, line: 26, baseType: !93)
!93 = !DIDerivedType(tag: DW_TAG_typedef, name: "__int32_t", file: !33, line: 41, baseType: !59)
!94 = !DIDerivedType(tag: DW_TAG_pointer_type, baseType: !77, size: 64)
!95 = !DIDerivedType(tag: DW_TAG_pointer_type, baseType: !78, size: 64)
!96 = !DIDerivedType(tag: DW_TAG_pointer_type, baseType: !92, size: 64)
!97 = !DIDerivedType(tag: DW_TAG_pointer_type, baseType: !98, size: 64)
!98 = !DIDerivedType(tag: DW_TAG_typedef, name: "int16_t", file: !79, line: 25, baseType: !99)
!99 = !DIDerivedType(tag: DW_TAG_typedef, name: "__int16_t", file: !33, line: 39, baseType: !100)
!100 = !DIBasicType(name: "short", size: 16, encoding: DW_ATE_signed)
!101 = !DIDerivedType(tag: DW_TAG_pointer_type, baseType: !89, size: 64)
!102 = !DIDerivedType(tag: DW_TAG_pointer_type, baseType: !91, size: 64)
!103 = !DIBasicType(name: "double", size: 64, encoding: DW_ATE_float)
!104 = distinct !DICompositeType(tag: DW_TAG_structure_type, name: "duration<long, std::ratio<1, 1000000> >", scope: !106, file: !105, line: 300, size: 64, flags: DIFlagTypePassByValue, elements: !107, templateParams: !153, identifier: "_ZTSNSt6chrono8durationIlSt5ratioILl1ELl1000000EEEE")
!105 = !DIFile(filename: "/usr/bin/../lib/gcc/x86_64-linux-gnu/9/../../../../include/c++/9/chrono", directory: "")
!106 = !DINamespace(name: "chrono", scope: !58)
!107 = !{!108, !110, !114, !119, !120, !124, !128, !131, !132, !135, !138, !139, !140, !141, !142, !147, !148, !151, !152}
!108 = !DIDerivedType(tag: DW_TAG_member, name: "__r", scope: !104, file: !105, line: 443, baseType: !109, size: 64, flags: DIFlagPrivate)
!109 = !DIDerivedType(tag: DW_TAG_typedef, name: "rep", scope: !104, file: !105, line: 313, baseType: !85)
!110 = !DISubprogram(name: "duration", scope: !104, file: !105, line: 322, type: !111, scopeLine: 322, flags: DIFlagPrototyped, spFlags: 0)
!111 = !DISubroutineType(types: !112)
!112 = !{null, !113}
!113 = !DIDerivedType(tag: DW_TAG_pointer_type, baseType: !104, size: 64, flags: DIFlagArtificial | DIFlagObjectPointer)
!114 = !DISubprogram(name: "duration", scope: !104, file: !105, line: 324, type: !115, scopeLine: 324, flags: DIFlagPrototyped, spFlags: 0)
!115 = !DISubroutineType(types: !116)
!116 = !{null, !113, !117}
!117 = !DIDerivedType(tag: DW_TAG_reference_type, baseType: !118, size: 64)
!118 = !DIDerivedType(tag: DW_TAG_const_type, baseType: !104)
!119 = !DISubprogram(name: "~duration", scope: !104, file: !105, line: 341, type: !111, scopeLine: 341, flags: DIFlagPrototyped, spFlags: 0)
!120 = !DISubprogram(name: "operator=", linkageName: "_ZNSt6chrono8durationIlSt5ratioILl1ELl1000000EEEaSERKS3_", scope: !104, file: !105, line: 342, type: !121, scopeLine: 342, flags: DIFlagPrototyped, spFlags: 0)
!121 = !DISubroutineType(types: !122)
!122 = !{!123, !113, !117}
!123 = !DIDerivedType(tag: DW_TAG_reference_type, baseType: !104, size: 64)
!124 = !DISubprogram(name: "count", linkageName: "_ZNKSt6chrono8durationIlSt5ratioILl1ELl1000000EEE5countEv", scope: !104, file: !105, line: 346, type: !125, scopeLine: 346, flags: DIFlagPrototyped, spFlags: 0)
!125 = !DISubroutineType(types: !126)
!126 = !{!109, !127}
!127 = !DIDerivedType(tag: DW_TAG_pointer_type, baseType: !118, size: 64, flags: DIFlagArtificial | DIFlagObjectPointer)
!128 = !DISubprogram(name: "operator+", linkageName: "_ZNKSt6chrono8durationIlSt5ratioILl1ELl1000000EEEpsEv", scope: !104, file: !105, line: 351, type: !129, scopeLine: 351, flags: DIFlagPrototyped, spFlags: 0)
!129 = !DISubroutineType(types: !130)
!130 = !{!104, !127}
!131 = !DISubprogram(name: "operator-", linkageName: "_ZNKSt6chrono8durationIlSt5ratioILl1ELl1000000EEEngEv", scope: !104, file: !105, line: 355, type: !129, scopeLine: 355, flags: DIFlagPrototyped, spFlags: 0)
!132 = !DISubprogram(name: "operator++", linkageName: "_ZNSt6chrono8durationIlSt5ratioILl1ELl1000000EEEppEv", scope: !104, file: !105, line: 359, type: !133, scopeLine: 359, flags: DIFlagPrototyped, spFlags: 0)
!133 = !DISubroutineType(types: !134)
!134 = !{!123, !113}
!135 = !DISubprogram(name: "operator++", linkageName: "_ZNSt6chrono8durationIlSt5ratioILl1ELl1000000EEEppEi", scope: !104, file: !105, line: 366, type: !136, scopeLine: 366, flags: DIFlagPrototyped, spFlags: 0)
!136 = !DISubroutineType(types: !137)
!137 = !{!104, !113, !59}
!138 = !DISubprogram(name: "operator--", linkageName: "_ZNSt6chrono8durationIlSt5ratioILl1ELl1000000EEEmmEv", scope: !104, file: !105, line: 370, type: !133, scopeLine: 370, flags: DIFlagPrototyped, spFlags: 0)
!139 = !DISubprogram(name: "operator--", linkageName: "_ZNSt6chrono8durationIlSt5ratioILl1ELl1000000EEEmmEi", scope: !104, file: !105, line: 377, type: !136, scopeLine: 377, flags: DIFlagPrototyped, spFlags: 0)
!140 = !DISubprogram(name: "operator+=", linkageName: "_ZNSt6chrono8durationIlSt5ratioILl1ELl1000000EEEpLERKS3_", scope: !104, file: !105, line: 381, type: !121, scopeLine: 381, flags: DIFlagPrototyped, spFlags: 0)
!141 = !DISubprogram(name: "operator-=", linkageName: "_ZNSt6chrono8durationIlSt5ratioILl1ELl1000000EEEmIERKS3_", scope: !104, file: !105, line: 388, type: !121, scopeLine: 388, flags: DIFlagPrototyped, spFlags: 0)
!142 = !DISubprogram(name: "operator*=", linkageName: "_ZNSt6chrono8durationIlSt5ratioILl1ELl1000000EEEmLERKl", scope: !104, file: !105, line: 395, type: !143, scopeLine: 395, flags: DIFlagPrototyped, spFlags: 0)
!143 = !DISubroutineType(types: !144)
!144 = !{!123, !113, !145}
!145 = !DIDerivedType(tag: DW_TAG_reference_type, baseType: !146, size: 64)
!146 = !DIDerivedType(tag: DW_TAG_const_type, baseType: !109)
!147 = !DISubprogram(name: "operator/=", linkageName: "_ZNSt6chrono8durationIlSt5ratioILl1ELl1000000EEEdVERKl", scope: !104, file: !105, line: 402, type: !143, scopeLine: 402, flags: DIFlagPrototyped, spFlags: 0)
!148 = !DISubprogram(name: "zero", linkageName: "_ZNSt6chrono8durationIlSt5ratioILl1ELl1000000EEE4zeroEv", scope: !104, file: !105, line: 431, type: !149, scopeLine: 431, flags: DIFlagPrototyped | DIFlagStaticMember, spFlags: 0)
!149 = !DISubroutineType(types: !150)
!150 = !{!104}
!151 = !DISubprogram(name: "min", linkageName: "_ZNSt6chrono8durationIlSt5ratioILl1ELl1000000EEE3minEv", scope: !104, file: !105, line: 435, type: !149, scopeLine: 435, flags: DIFlagPrototyped | DIFlagStaticMember, spFlags: 0)
!152 = !DISubprogram(name: "max", linkageName: "_ZNSt6chrono8durationIlSt5ratioILl1ELl1000000EEE3maxEv", scope: !104, file: !105, line: 439, type: !149, scopeLine: 439, flags: DIFlagPrototyped | DIFlagStaticMember, spFlags: 0)
!153 = !{!154, !155}
!154 = !DITemplateTypeParameter(name: "_Rep", type: !85)
!155 = !DITemplateTypeParameter(name: "_Period", type: !156)
!156 = distinct !DICompositeType(tag: DW_TAG_structure_type, name: "ratio<1, 1000000>", scope: !58, file: !157, line: 261, size: 8, flags: DIFlagTypePassByValue, elements: !158, templateParams: !165, identifier: "_ZTSSt5ratioILl1ELl1000000EE")
!157 = !DIFile(filename: "/usr/bin/../lib/gcc/x86_64-linux-gnu/9/../../../../include/c++/9/ratio", directory: "")
!158 = !{!159, !164}
!159 = !DIDerivedType(tag: DW_TAG_member, name: "num", scope: !156, file: !157, line: 268, baseType: !160, flags: DIFlagStaticMember, extraData: i64 1)
!160 = !DIDerivedType(tag: DW_TAG_const_type, baseType: !161)
!161 = !DIDerivedType(tag: DW_TAG_typedef, name: "intmax_t", file: !162, line: 101, baseType: !163)
!162 = !DIFile(filename: "/usr/include/stdint.h", directory: "")
!163 = !DIDerivedType(tag: DW_TAG_typedef, name: "__intmax_t", file: !33, line: 72, baseType: !85)
!164 = !DIDerivedType(tag: DW_TAG_member, name: "den", scope: !156, file: !157, line: 271, baseType: !160, flags: DIFlagStaticMember, extraData: i64 1000000)
!165 = !{!166, !167}
!166 = !DITemplateValueParameter(name: "_Num", type: !85, value: i64 1)
!167 = !DITemplateValueParameter(name: "_Den", type: !85, value: i64 1000000)
!168 = !DIDerivedType(tag: DW_TAG_pointer_type, baseType: !43, size: 64)
!169 = !DIDerivedType(tag: DW_TAG_pointer_type, baseType: !170, size: 64)
!170 = distinct !DICompositeType(tag: DW_TAG_structure_type, name: "value_index<float, unsigned long>", scope: !171, file: !25, line: 355, size: 128, flags: DIFlagTypePassByValue, elements: !172, templateParams: !175)
!171 = !DINamespace(scope: null)
!172 = !{!173, !174}
!173 = !DIDerivedType(tag: DW_TAG_member, name: "index", scope: !170, file: !25, line: 356, baseType: !40, size: 64)
!174 = !DIDerivedType(tag: DW_TAG_member, name: "value", scope: !170, file: !25, line: 357, baseType: !77, size: 32, offset: 64)
!175 = !{!176, !177}
!176 = !DITemplateTypeParameter(name: "T", type: !77)
!177 = !DITemplateTypeParameter(name: "TI", type: !40)
!178 = !DIDerivedType(tag: DW_TAG_pointer_type, baseType: !179, size: 64)
!179 = distinct !DICompositeType(tag: DW_TAG_structure_type, name: "value_index<float, int>", scope: !171, file: !25, line: 355, size: 64, flags: DIFlagTypePassByValue, elements: !180, templateParams: !183)
!180 = !{!181, !182}
!181 = !DIDerivedType(tag: DW_TAG_member, name: "index", scope: !179, file: !25, line: 356, baseType: !59, size: 32)
!182 = !DIDerivedType(tag: DW_TAG_member, name: "value", scope: !179, file: !25, line: 357, baseType: !77, size: 32, offset: 32)
!183 = !{!176, !184}
!184 = !DITemplateTypeParameter(name: "TI", type: !59)
!185 = !DIDerivedType(tag: DW_TAG_pointer_type, baseType: !186, size: 64)
!186 = distinct !DICompositeType(tag: DW_TAG_structure_type, name: "value_index<signed char, unsigned long>", scope: !171, file: !25, line: 355, size: 128, flags: DIFlagTypePassByValue, elements: !187, templateParams: !190)
!187 = !{!188, !189}
!188 = !DIDerivedType(tag: DW_TAG_member, name: "index", scope: !186, file: !25, line: 356, baseType: !40, size: 64)
!189 = !DIDerivedType(tag: DW_TAG_member, name: "value", scope: !186, file: !25, line: 357, baseType: !81, size: 8, offset: 64)
!190 = !{!191, !177}
!191 = !DITemplateTypeParameter(name: "T", type: !81)
!192 = !DIDerivedType(tag: DW_TAG_pointer_type, baseType: !193, size: 64)
!193 = distinct !DICompositeType(tag: DW_TAG_structure_type, name: "value_index<signed char, int>", scope: !171, file: !25, line: 355, size: 64, flags: DIFlagTypePassByValue, elements: !194, templateParams: !197)
!194 = !{!195, !196}
!195 = !DIDerivedType(tag: DW_TAG_member, name: "index", scope: !193, file: !25, line: 356, baseType: !59, size: 32)
!196 = !DIDerivedType(tag: DW_TAG_member, name: "value", scope: !193, file: !25, line: 357, baseType: !81, size: 8, offset: 32)
!197 = !{!191, !184}
!198 = !DIDerivedType(tag: DW_TAG_pointer_type, baseType: !199, size: 64)
!199 = !DIDerivedType(tag: DW_TAG_const_type, baseType: !200)
!200 = distinct !DICompositeType(tag: DW_TAG_structure_type, name: "Box", scope: !171, file: !25, line: 1300, size: 128, flags: DIFlagTypePassByValue | DIFlagNonTrivial, elements: !201)
!201 = !{!202, !203, !204, !205}
!202 = !DIDerivedType(tag: DW_TAG_member, name: "v0", scope: !200, file: !25, line: 1301, baseType: !77, size: 32)
!203 = !DIDerivedType(tag: DW_TAG_member, name: "v1", scope: !200, file: !25, line: 1302, baseType: !77, size: 32, offset: 32)
!204 = !DIDerivedType(tag: DW_TAG_member, name: "v2", scope: !200, file: !25, line: 1303, baseType: !77, size: 32, offset: 64)
!205 = !DIDerivedType(tag: DW_TAG_member, name: "v3", scope: !200, file: !25, line: 1304, baseType: !77, size: 32, offset: 96)
!206 = !DIDerivedType(tag: DW_TAG_typedef, name: "_DistanceType", scope: !208, file: !207, line: 249, baseType: !251)
!207 = !DIFile(filename: "/usr/bin/../lib/gcc/x86_64-linux-gnu/9/../../../../include/c++/9/bits/stl_heap.h", directory: "")
!208 = distinct !DISubprogram(name: "__pop_heap<(anonymous namespace)::ClassBox *, __gnu_cxx::__ops::_Iter_comp_iter<(lambda at /opt/glow/lib/Backends/CPU/../../LLVMIRCodeGen/libjit/libjit.cpp:1432:18)> >", linkageName: "_ZSt10__pop_heapIPN12_GLOBAL__N_18ClassBoxEN9__gnu_cxx5__ops15_Iter_comp_iterIZNS0_18libjit_nms_genericImEEvPT_S8_PKfPKmmSA_SC_mSC_mjjffbEUlRKS1_SE_E_EEEvS7_S7_S7_RT0_", scope: !58, file: !207, line: 243, type: !209, scopeLine: 245, flags: DIFlagPrototyped, spFlags: DISPFlagLocalToUnit | DISPFlagDefinition, unit: !21, templateParams: !248, retainedNodes: !4)
!209 = !DISubroutineType(types: !210)
!210 = !{null, !211, !211, !211, !216}
!211 = !DIDerivedType(tag: DW_TAG_pointer_type, baseType: !212, size: 64)
!212 = distinct !DICompositeType(tag: DW_TAG_structure_type, name: "ClassBox", scope: !171, file: !25, line: 1295, size: 128, flags: DIFlagTypePassByValue | DIFlagNonTrivial, elements: !213)
!213 = !{!214, !215}
!214 = !DIDerivedType(tag: DW_TAG_member, name: "score", scope: !212, file: !25, line: 1296, baseType: !77, size: 32)
!215 = !DIDerivedType(tag: DW_TAG_member, name: "index", scope: !212, file: !25, line: 1297, baseType: !86, size: 64, offset: 64)
!216 = !DIDerivedType(tag: DW_TAG_reference_type, baseType: !217, size: 64)
!217 = distinct !DICompositeType(tag: DW_TAG_structure_type, name: "_Iter_comp_iter<(lambda at /opt/glow/lib/Backends/CPU/../../LLVMIRCodeGen/libjit/libjit.cpp:1432:18)>", scope: !219, file: !218, line: 130, size: 8, flags: DIFlagTypePassByValue | DIFlagNonTrivial, elements: !221, templateParams: !246)
!218 = !DIFile(filename: "/usr/bin/../lib/gcc/x86_64-linux-gnu/9/../../../../include/c++/9/bits/predefined_ops.h", directory: "")
!219 = !DINamespace(name: "__ops", scope: !220)
!220 = !DINamespace(name: "__gnu_cxx", scope: null)
!221 = !{!222, !242}
!222 = !DIDerivedType(tag: DW_TAG_member, name: "_M_comp", scope: !217, file: !218, line: 132, baseType: !223, size: 8)
!223 = distinct !DICompositeType(tag: DW_TAG_class_type, scope: !224, file: !25, line: 1432, size: 8, flags: DIFlagTypePassByValue | DIFlagNonTrivial, elements: !234)
!224 = distinct !DISubprogram(name: "libjit_nms_generic<unsigned long>", linkageName: "_ZN12_GLOBAL__N_118libjit_nms_genericImEEvPT_S2_PKfPKmmS4_S6_mS6_mjjffb", scope: !171, file: !25, line: 1393, type: !225, scopeLine: 1399, flags: DIFlagPrototyped, spFlags: DISPFlagLocalToUnit | DISPFlagDefinition, unit: !21, templateParams: !232, retainedNodes: !4)
!225 = !DISubroutineType(types: !226)
!226 = !{null, !227, !227, !228, !230, !36, !228, !230, !36, !230, !36, !73, !73, !77, !77, !91}
!227 = !DIDerivedType(tag: DW_TAG_pointer_type, baseType: !40, size: 64)
!228 = !DIDerivedType(tag: DW_TAG_pointer_type, baseType: !229, size: 64)
!229 = !DIDerivedType(tag: DW_TAG_const_type, baseType: !77)
!230 = !DIDerivedType(tag: DW_TAG_pointer_type, baseType: !231, size: 64)
!231 = !DIDerivedType(tag: DW_TAG_const_type, baseType: !36)
!232 = !{!233}
!233 = !DITemplateTypeParameter(name: "T", type: !40)
!234 = !{!235}
!235 = !DISubprogram(name: "operator()", scope: !223, file: !25, line: 1432, type: !236, scopeLine: 1432, flags: DIFlagPublic | DIFlagPrototyped, spFlags: 0)
!236 = !DISubroutineType(types: !237)
!237 = !{!91, !238, !240, !240}
!238 = !DIDerivedType(tag: DW_TAG_pointer_type, baseType: !239, size: 64, flags: DIFlagArtificial | DIFlagObjectPointer)
!239 = !DIDerivedType(tag: DW_TAG_const_type, baseType: !223)
!240 = !DIDerivedType(tag: DW_TAG_reference_type, baseType: !241, size: 64)
!241 = !DIDerivedType(tag: DW_TAG_const_type, baseType: !212)
!242 = !DISubprogram(name: "_Iter_comp_iter", scope: !217, file: !218, line: 135, type: !243, scopeLine: 135, flags: DIFlagExplicit | DIFlagPrototyped, spFlags: 0)
!243 = !DISubroutineType(types: !244)
!244 = !{null, !245, !223}
!245 = !DIDerivedType(tag: DW_TAG_pointer_type, baseType: !217, size: 64, flags: DIFlagArtificial | DIFlagObjectPointer)
!246 = !{!247}
!247 = !DITemplateTypeParameter(name: "_Compare", type: !223)
!248 = !{!249, !250}
!249 = !DITemplateTypeParameter(name: "_RandomAccessIterator", type: !211)
!250 = !DITemplateTypeParameter(name: "_Compare", type: !217)
!251 = !DIDerivedType(tag: DW_TAG_typedef, name: "difference_type", scope: !253, file: !252, line: 182, baseType: !256)
!252 = !DIFile(filename: "/usr/bin/../lib/gcc/x86_64-linux-gnu/9/../../../../include/c++/9/bits/stl_iterator_base_types.h", directory: "")
!253 = distinct !DICompositeType(tag: DW_TAG_structure_type, name: "iterator_traits<(anonymous namespace)::ClassBox *>", scope: !58, file: !252, line: 178, size: 8, flags: DIFlagTypePassByValue, elements: !4, templateParams: !254)
!254 = !{!255}
!255 = !DITemplateTypeParameter(name: "_Iterator", type: !211)
!256 = !DIDerivedType(tag: DW_TAG_typedef, name: "ptrdiff_t", scope: !58, file: !257, line: 259, baseType: !85)
!257 = !DIFile(filename: "/usr/bin/../lib/gcc/x86_64-linux-gnu/9/../../../../include/x86_64-linux-gnu/c++/9/bits/c++config.h", directory: "")
!258 = distinct !DICompositeType(tag: DW_TAG_structure_type, name: "_Val_comp_iter<(lambda at /opt/glow/lib/Backends/CPU/../../LLVMIRCodeGen/libjit/libjit.cpp:1432:18)>", scope: !219, file: !218, line: 191, size: 8, flags: DIFlagTypePassByValue | DIFlagNonTrivial, elements: !259, templateParams: !246)
!259 = !{!260, !261, !265, !270}
!260 = !DIDerivedType(tag: DW_TAG_member, name: "_M_comp", scope: !258, file: !218, line: 193, baseType: !223, size: 8)
!261 = !DISubprogram(name: "_Val_comp_iter", scope: !258, file: !218, line: 196, type: !262, scopeLine: 196, flags: DIFlagExplicit | DIFlagPrototyped, spFlags: 0)
!262 = !DISubroutineType(types: !263)
!263 = !{null, !264, !223}
!264 = !DIDerivedType(tag: DW_TAG_pointer_type, baseType: !258, size: 64, flags: DIFlagArtificial | DIFlagObjectPointer)
!265 = !DISubprogram(name: "_Val_comp_iter", scope: !258, file: !218, line: 201, type: !266, scopeLine: 201, flags: DIFlagExplicit | DIFlagPrototyped, spFlags: 0)
!266 = !DISubroutineType(types: !267)
!267 = !{null, !264, !268}
!268 = !DIDerivedType(tag: DW_TAG_reference_type, baseType: !269, size: 64)
!269 = !DIDerivedType(tag: DW_TAG_const_type, baseType: !217)
!270 = !DISubprogram(name: "_Val_comp_iter", scope: !258, file: !218, line: 207, type: !271, scopeLine: 207, flags: DIFlagExplicit | DIFlagPrototyped, spFlags: 0)
!271 = !DISubroutineType(types: !272)
!272 = !{null, !264, !273}
!273 = !DIDerivedType(tag: DW_TAG_rvalue_reference_type, baseType: !217, size: 64)
!274 = !DIDerivedType(tag: DW_TAG_typedef, name: "_DistanceType", scope: !275, file: !207, line: 249, baseType: !251)
!275 = distinct !DISubprogram(name: "__pop_heap<(anonymous namespace)::ClassBox *, __gnu_cxx::__ops::_Iter_comp_iter<(lambda at /opt/glow/lib/Backends/CPU/../../LLVMIRCodeGen/libjit/libjit.cpp:1432:18)> >", linkageName: "_ZSt10__pop_heapIPN12_GLOBAL__N_18ClassBoxEN9__gnu_cxx5__ops15_Iter_comp_iterIZNS0_18libjit_nms_genericIiEEvPT_S8_PKfPKmmSA_SC_mSC_mjjffbEUlRKS1_SE_E_EEEvS7_S7_S7_RT0_", scope: !58, file: !207, line: 243, type: !276, scopeLine: 245, flags: DIFlagPrototyped, spFlags: DISPFlagLocalToUnit | DISPFlagDefinition, unit: !21, templateParams: !301, retainedNodes: !4)
!276 = !DISubroutineType(types: !277)
!277 = !{null, !211, !211, !211, !278}
!278 = !DIDerivedType(tag: DW_TAG_reference_type, baseType: !279, size: 64)
!279 = distinct !DICompositeType(tag: DW_TAG_structure_type, name: "_Iter_comp_iter<(lambda at /opt/glow/lib/Backends/CPU/../../LLVMIRCodeGen/libjit/libjit.cpp:1432:18)>", scope: !219, file: !218, line: 130, size: 8, flags: DIFlagTypePassByValue | DIFlagNonTrivial, elements: !280, templateParams: !299)
!280 = !{!281, !295}
!281 = !DIDerivedType(tag: DW_TAG_member, name: "_M_comp", scope: !279, file: !218, line: 132, baseType: !282, size: 8)
!282 = distinct !DICompositeType(tag: DW_TAG_class_type, scope: !283, file: !25, line: 1432, size: 8, flags: DIFlagTypePassByValue | DIFlagNonTrivial, elements: !289)
!283 = distinct !DISubprogram(name: "libjit_nms_generic<int>", linkageName: "_ZN12_GLOBAL__N_118libjit_nms_genericIiEEvPT_S2_PKfPKmmS4_S6_mS6_mjjffb", scope: !171, file: !25, line: 1393, type: !284, scopeLine: 1399, flags: DIFlagPrototyped, spFlags: DISPFlagLocalToUnit | DISPFlagDefinition, unit: !21, templateParams: !287, retainedNodes: !4)
!284 = !DISubroutineType(types: !285)
!285 = !{null, !286, !286, !228, !230, !36, !228, !230, !36, !230, !36, !73, !73, !77, !77, !91}
!286 = !DIDerivedType(tag: DW_TAG_pointer_type, baseType: !59, size: 64)
!287 = !{!288}
!288 = !DITemplateTypeParameter(name: "T", type: !59)
!289 = !{!290}
!290 = !DISubprogram(name: "operator()", scope: !282, file: !25, line: 1432, type: !291, scopeLine: 1432, flags: DIFlagPublic | DIFlagPrototyped, spFlags: 0)
!291 = !DISubroutineType(types: !292)
!292 = !{!91, !293, !240, !240}
!293 = !DIDerivedType(tag: DW_TAG_pointer_type, baseType: !294, size: 64, flags: DIFlagArtificial | DIFlagObjectPointer)
!294 = !DIDerivedType(tag: DW_TAG_const_type, baseType: !282)
!295 = !DISubprogram(name: "_Iter_comp_iter", scope: !279, file: !218, line: 135, type: !296, scopeLine: 135, flags: DIFlagExplicit | DIFlagPrototyped, spFlags: 0)
!296 = !DISubroutineType(types: !297)
!297 = !{null, !298, !282}
!298 = !DIDerivedType(tag: DW_TAG_pointer_type, baseType: !279, size: 64, flags: DIFlagArtificial | DIFlagObjectPointer)
!299 = !{!300}
!300 = !DITemplateTypeParameter(name: "_Compare", type: !282)
!301 = !{!249, !302}
!302 = !DITemplateTypeParameter(name: "_Compare", type: !279)
!303 = distinct !DICompositeType(tag: DW_TAG_structure_type, name: "_Val_comp_iter<(lambda at /opt/glow/lib/Backends/CPU/../../LLVMIRCodeGen/libjit/libjit.cpp:1432:18)>", scope: !219, file: !218, line: 191, size: 8, flags: DIFlagTypePassByValue | DIFlagNonTrivial, elements: !304, templateParams: !299)
!304 = !{!305, !306, !310, !315}
!305 = !DIDerivedType(tag: DW_TAG_member, name: "_M_comp", scope: !303, file: !218, line: 193, baseType: !282, size: 8)
!306 = !DISubprogram(name: "_Val_comp_iter", scope: !303, file: !218, line: 196, type: !307, scopeLine: 196, flags: DIFlagExplicit | DIFlagPrototyped, spFlags: 0)
!307 = !DISubroutineType(types: !308)
!308 = !{null, !309, !282}
!309 = !DIDerivedType(tag: DW_TAG_pointer_type, baseType: !303, size: 64, flags: DIFlagArtificial | DIFlagObjectPointer)
!310 = !DISubprogram(name: "_Val_comp_iter", scope: !303, file: !218, line: 201, type: !311, scopeLine: 201, flags: DIFlagExplicit | DIFlagPrototyped, spFlags: 0)
!311 = !DISubroutineType(types: !312)
!312 = !{null, !309, !313}
!313 = !DIDerivedType(tag: DW_TAG_reference_type, baseType: !314, size: 64)
!314 = !DIDerivedType(tag: DW_TAG_const_type, baseType: !279)
!315 = !DISubprogram(name: "_Val_comp_iter", scope: !303, file: !218, line: 207, type: !316, scopeLine: 207, flags: DIFlagExplicit | DIFlagPrototyped, spFlags: 0)
!316 = !DISubroutineType(types: !317)
!317 = !{null, !309, !318}
!318 = !DIDerivedType(tag: DW_TAG_rvalue_reference_type, baseType: !279, size: 64)
!319 = distinct !DICompositeType(tag: DW_TAG_structure_type, name: "ratio<1, 1000>", scope: !58, file: !157, line: 261, size: 8, flags: DIFlagTypePassByValue, elements: !320, templateParams: !323, identifier: "_ZTSSt5ratioILl1ELl1000EE")
!320 = !{!321, !322}
!321 = !DIDerivedType(tag: DW_TAG_member, name: "num", scope: !319, file: !157, line: 268, baseType: !160, flags: DIFlagStaticMember, extraData: i64 1)
!322 = !DIDerivedType(tag: DW_TAG_member, name: "den", scope: !319, file: !157, line: 271, baseType: !160, flags: DIFlagStaticMember, extraData: i64 1000)
!323 = !{!166, !324}
!324 = !DITemplateValueParameter(name: "_Den", type: !85, value: i64 1000)
!325 = !{!326, !328, !330}
!326 = !DIGlobalVariableExpression(var: !327, expr: !DIExpression())
!327 = distinct !DIGlobalVariable(name: "libjit_sizeTVar", scope: !21, file: !25, line: 1693, type: !86, isLocal: false, isDefinition: true)
!328 = !DIGlobalVariableExpression(var: !329, expr: !DIExpression())
!329 = distinct !DIGlobalVariable(name: "libjit_dimTVar", scope: !21, file: !25, line: 1694, type: !36, isLocal: false, isDefinition: true)
!330 = !DIGlobalVariableExpression(var: !331, expr: !DIExpression())
!331 = distinct !DIGlobalVariable(name: "libjit_intVar", scope: !21, file: !25, line: 1695, type: !59, isLocal: false, isDefinition: true)
!332 = !{!333, !337, !343, !347, !353, !357, !362, !364, !368, !372, !376, !387, !391, !395, !399, !403, !407, !411, !415, !419, !423, !431, !435, !439, !441, !445, !449, !453, !459, !463, !467, !469, !477, !481, !488, !490, !494, !498, !502, !506, !511, !515, !520, !521, !522, !523, !525, !526, !527, !528, !529, !530, !531, !585, !589, !591, !592, !593, !594, !596, !598, !600, !602, !605, !608, !611, !614, !615, !617, !618, !622, !625, !626, !628, !630, !632, !634, !637, !640, !643, !646, !649, !651, !656, !660, !663, !668, !672, !677, !682, !688, !694, !698, !700, !705, !708, !714, !716, !718, !722, !724, !726, !728, !730, !732, !734, !736, !740, !744, !746, !748, !753, !755, !757, !759, !761, !763, !765, !768, !770, !772, !776, !780, !782, !784, !786, !788, !790, !792, !794, !796, !798, !800, !804, !808, !810, !812, !814, !816, !818, !820, !822, !824, !826, !828, !830, !832, !834, !836, !838, !842, !846, !850, !852, !854, !856, !858, !860, !862, !864, !866, !868, !872, !876, !880, !882, !884, !886, !890, !894, !898, !900, !902, !904, !906, !908, !910, !912, !914, !916, !918, !920, !922, !926, !930, !934, !936, !938, !940, !942, !946, !950, !952, !954, !956, !958, !960, !962, !966, !970, !972, !974, !976, !978, !982, !986, !990, !992, !994, !996, !998, !1000, !1002, !1006, !1010, !1014, !1016, !1020, !1024, !1026, !1028, !1030, !1032, !1034, !1036, !1039, !1044, !1046, !1047, !1048, !1049, !1050, !1051, !1052, !1053, !1054, !1055, !1056, !1057, !1058, !1059, !1060, !1061, !1062, !1063, !1064, !1065, !1066, !1067, !1068, !1069, !1070, !1071, !1072, !1073, !1074, !1075, !1076, !1077, !1082, !1086, !1090, !1094, !1098, !1104, !1108}
!333 = !DIImportedEntity(tag: DW_TAG_imported_module, scope: !334, entity: !335, file: !336, line: 58)
!334 = !DINamespace(name: "__gnu_debug", scope: null)
!335 = !DINamespace(name: "__debug", scope: !58)
!336 = !DIFile(filename: "/usr/bin/../lib/gcc/x86_64-linux-gnu/9/../../../../include/c++/9/debug/debug.h", directory: "")
!337 = !DIImportedEntity(tag: DW_TAG_imported_declaration, scope: !58, entity: !338, file: !342, line: 52)
!338 = !DISubprogram(name: "abs", scope: !339, file: !339, line: 840, type: !340, flags: DIFlagPrototyped, spFlags: 0)
!339 = !DIFile(filename: "/usr/include/stdlib.h", directory: "")
!340 = !DISubroutineType(types: !341)
!341 = !{!59, !59}
!342 = !DIFile(filename: "/usr/bin/../lib/gcc/x86_64-linux-gnu/9/../../../../include/c++/9/bits/std_abs.h", directory: "")
!343 = !DIImportedEntity(tag: DW_TAG_imported_declaration, scope: !58, entity: !344, file: !346, line: 127)
!344 = !DIDerivedType(tag: DW_TAG_typedef, name: "div_t", file: !339, line: 62, baseType: !345)
!345 = distinct !DICompositeType(tag: DW_TAG_structure_type, file: !339, line: 58, size: 64, flags: DIFlagFwdDecl, identifier: "_ZTS5div_t")
!346 = !DIFile(filename: "/usr/bin/../lib/gcc/x86_64-linux-gnu/9/../../../../include/c++/9/cstdlib", directory: "")
!347 = !DIImportedEntity(tag: DW_TAG_imported_declaration, scope: !58, entity: !348, file: !346, line: 128)
!348 = !DIDerivedType(tag: DW_TAG_typedef, name: "ldiv_t", file: !339, line: 70, baseType: !349)
!349 = distinct !DICompositeType(tag: DW_TAG_structure_type, file: !339, line: 66, size: 128, flags: DIFlagTypePassByValue, elements: !350, identifier: "_ZTS6ldiv_t")
!350 = !{!351, !352}
!351 = !DIDerivedType(tag: DW_TAG_member, name: "quot", scope: !349, file: !339, line: 68, baseType: !85, size: 64)
!352 = !DIDerivedType(tag: DW_TAG_member, name: "rem", scope: !349, file: !339, line: 69, baseType: !85, size: 64, offset: 64)
!353 = !DIImportedEntity(tag: DW_TAG_imported_declaration, scope: !58, entity: !354, file: !346, line: 130)
!354 = !DISubprogram(name: "abort", scope: !339, file: !339, line: 591, type: !355, flags: DIFlagPrototyped | DIFlagNoReturn, spFlags: 0)
!355 = !DISubroutineType(types: !356)
!356 = !{null}
!357 = !DIImportedEntity(tag: DW_TAG_imported_declaration, scope: !58, entity: !358, file: !346, line: 134)
!358 = !DISubprogram(name: "atexit", scope: !339, file: !339, line: 595, type: !359, flags: DIFlagPrototyped, spFlags: 0)
!359 = !DISubroutineType(types: !360)
!360 = !{!59, !361}
!361 = !DIDerivedType(tag: DW_TAG_pointer_type, baseType: !355, size: 64)
!362 = !DIImportedEntity(tag: DW_TAG_imported_declaration, scope: !58, entity: !363, file: !346, line: 137)
!363 = !DISubprogram(name: "at_quick_exit", scope: !339, file: !339, line: 600, type: !359, flags: DIFlagPrototyped, spFlags: 0)
!364 = !DIImportedEntity(tag: DW_TAG_imported_declaration, scope: !58, entity: !365, file: !346, line: 140)
!365 = !DISubprogram(name: "atof", scope: !339, file: !339, line: 101, type: !366, flags: DIFlagPrototyped, spFlags: 0)
!366 = !DISubroutineType(types: !367)
!367 = !{!103, !41}
!368 = !DIImportedEntity(tag: DW_TAG_imported_declaration, scope: !58, entity: !369, file: !346, line: 141)
!369 = !DISubprogram(name: "atoi", scope: !339, file: !339, line: 104, type: !370, flags: DIFlagPrototyped, spFlags: 0)
!370 = !DISubroutineType(types: !371)
!371 = !{!59, !41}
!372 = !DIImportedEntity(tag: DW_TAG_imported_declaration, scope: !58, entity: !373, file: !346, line: 142)
!373 = !DISubprogram(name: "atol", scope: !339, file: !339, line: 107, type: !374, flags: DIFlagPrototyped, spFlags: 0)
!374 = !DISubroutineType(types: !375)
!375 = !{!85, !41}
!376 = !DIImportedEntity(tag: DW_TAG_imported_declaration, scope: !58, entity: !377, file: !346, line: 143)
!377 = !DISubprogram(name: "bsearch", scope: !339, file: !339, line: 820, type: !378, flags: DIFlagPrototyped, spFlags: 0)
!378 = !DISubroutineType(types: !379)
!379 = !{!380, !381, !381, !86, !86, !383}
!380 = !DIDerivedType(tag: DW_TAG_pointer_type, baseType: null, size: 64)
!381 = !DIDerivedType(tag: DW_TAG_pointer_type, baseType: !382, size: 64)
!382 = !DIDerivedType(tag: DW_TAG_const_type, baseType: null)
!383 = !DIDerivedType(tag: DW_TAG_typedef, name: "__compar_fn_t", file: !339, line: 808, baseType: !384)
!384 = !DIDerivedType(tag: DW_TAG_pointer_type, baseType: !385, size: 64)
!385 = !DISubroutineType(types: !386)
!386 = !{!59, !381, !381}
!387 = !DIImportedEntity(tag: DW_TAG_imported_declaration, scope: !58, entity: !388, file: !346, line: 144)
!388 = !DISubprogram(name: "calloc", scope: !339, file: !339, line: 542, type: !389, flags: DIFlagPrototyped, spFlags: 0)
!389 = !DISubroutineType(types: !390)
!390 = !{!380, !86, !86}
!391 = !DIImportedEntity(tag: DW_TAG_imported_declaration, scope: !58, entity: !392, file: !346, line: 145)
!392 = !DISubprogram(name: "div", scope: !339, file: !339, line: 852, type: !393, flags: DIFlagPrototyped, spFlags: 0)
!393 = !DISubroutineType(types: !394)
!394 = !{!344, !59, !59}
!395 = !DIImportedEntity(tag: DW_TAG_imported_declaration, scope: !58, entity: !396, file: !346, line: 146)
!396 = !DISubprogram(name: "exit", scope: !339, file: !339, line: 617, type: !397, flags: DIFlagPrototyped | DIFlagNoReturn, spFlags: 0)
!397 = !DISubroutineType(types: !398)
!398 = !{null, !59}
!399 = !DIImportedEntity(tag: DW_TAG_imported_declaration, scope: !58, entity: !400, file: !346, line: 147)
!400 = !DISubprogram(name: "free", scope: !339, file: !339, line: 565, type: !401, flags: DIFlagPrototyped, spFlags: 0)
!401 = !DISubroutineType(types: !402)
!402 = !{null, !380}
!403 = !DIImportedEntity(tag: DW_TAG_imported_declaration, scope: !58, entity: !404, file: !346, line: 148)
!404 = !DISubprogram(name: "getenv", scope: !339, file: !339, line: 634, type: !405, flags: DIFlagPrototyped, spFlags: 0)
!405 = !DISubroutineType(types: !406)
!406 = !{!168, !41}
!407 = !DIImportedEntity(tag: DW_TAG_imported_declaration, scope: !58, entity: !408, file: !346, line: 149)
!408 = !DISubprogram(name: "labs", scope: !339, file: !339, line: 841, type: !409, flags: DIFlagPrototyped, spFlags: 0)
!409 = !DISubroutineType(types: !410)
!410 = !{!85, !85}
!411 = !DIImportedEntity(tag: DW_TAG_imported_declaration, scope: !58, entity: !412, file: !346, line: 150)
!412 = !DISubprogram(name: "ldiv", scope: !339, file: !339, line: 854, type: !413, flags: DIFlagPrototyped, spFlags: 0)
!413 = !DISubroutineType(types: !414)
!414 = !{!348, !85, !85}
!415 = !DIImportedEntity(tag: DW_TAG_imported_declaration, scope: !58, entity: !416, file: !346, line: 151)
!416 = !DISubprogram(name: "malloc", scope: !339, file: !339, line: 539, type: !417, flags: DIFlagPrototyped, spFlags: 0)
!417 = !DISubroutineType(types: !418)
!418 = !{!380, !86}
!419 = !DIImportedEntity(tag: DW_TAG_imported_declaration, scope: !58, entity: !420, file: !346, line: 153)
!420 = !DISubprogram(name: "mblen", scope: !339, file: !339, line: 922, type: !421, flags: DIFlagPrototyped, spFlags: 0)
!421 = !DISubroutineType(types: !422)
!422 = !{!59, !41, !86}
!423 = !DIImportedEntity(tag: DW_TAG_imported_declaration, scope: !58, entity: !424, file: !346, line: 154)
!424 = !DISubprogram(name: "mbstowcs", scope: !339, file: !339, line: 933, type: !425, flags: DIFlagPrototyped, spFlags: 0)
!425 = !DISubroutineType(types: !426)
!426 = !{!86, !427, !430, !86}
!427 = !DIDerivedType(tag: DW_TAG_restrict_type, baseType: !428)
!428 = !DIDerivedType(tag: DW_TAG_pointer_type, baseType: !429, size: 64)
!429 = !DIBasicType(name: "wchar_t", size: 32, encoding: DW_ATE_signed)
!430 = !DIDerivedType(tag: DW_TAG_restrict_type, baseType: !41)
!431 = !DIImportedEntity(tag: DW_TAG_imported_declaration, scope: !58, entity: !432, file: !346, line: 155)
!432 = !DISubprogram(name: "mbtowc", scope: !339, file: !339, line: 925, type: !433, flags: DIFlagPrototyped, spFlags: 0)
!433 = !DISubroutineType(types: !434)
!434 = !{!59, !427, !430, !86}
!435 = !DIImportedEntity(tag: DW_TAG_imported_declaration, scope: !58, entity: !436, file: !346, line: 157)
!436 = !DISubprogram(name: "qsort", scope: !339, file: !339, line: 830, type: !437, flags: DIFlagPrototyped, spFlags: 0)
!437 = !DISubroutineType(types: !438)
!438 = !{null, !380, !86, !86, !383}
!439 = !DIImportedEntity(tag: DW_TAG_imported_declaration, scope: !58, entity: !440, file: !346, line: 160)
!440 = !DISubprogram(name: "quick_exit", scope: !339, file: !339, line: 623, type: !397, flags: DIFlagPrototyped | DIFlagNoReturn, spFlags: 0)
!441 = !DIImportedEntity(tag: DW_TAG_imported_declaration, scope: !58, entity: !442, file: !346, line: 163)
!442 = !DISubprogram(name: "rand", scope: !339, file: !339, line: 453, type: !443, flags: DIFlagPrototyped, spFlags: 0)
!443 = !DISubroutineType(types: !444)
!444 = !{!59}
!445 = !DIImportedEntity(tag: DW_TAG_imported_declaration, scope: !58, entity: !446, file: !346, line: 164)
!446 = !DISubprogram(name: "realloc", scope: !339, file: !339, line: 550, type: !447, flags: DIFlagPrototyped, spFlags: 0)
!447 = !DISubroutineType(types: !448)
!448 = !{!380, !380, !86}
!449 = !DIImportedEntity(tag: DW_TAG_imported_declaration, scope: !58, entity: !450, file: !346, line: 165)
!450 = !DISubprogram(name: "srand", scope: !339, file: !339, line: 455, type: !451, flags: DIFlagPrototyped, spFlags: 0)
!451 = !DISubroutineType(types: !452)
!452 = !{null, !73}
!453 = !DIImportedEntity(tag: DW_TAG_imported_declaration, scope: !58, entity: !454, file: !346, line: 166)
!454 = !DISubprogram(name: "strtod", scope: !339, file: !339, line: 117, type: !455, flags: DIFlagPrototyped, spFlags: 0)
!455 = !DISubroutineType(types: !456)
!456 = !{!103, !430, !457}
!457 = !DIDerivedType(tag: DW_TAG_restrict_type, baseType: !458)
!458 = !DIDerivedType(tag: DW_TAG_pointer_type, baseType: !168, size: 64)
!459 = !DIImportedEntity(tag: DW_TAG_imported_declaration, scope: !58, entity: !460, file: !346, line: 167)
!460 = !DISubprogram(name: "strtol", scope: !339, file: !339, line: 176, type: !461, flags: DIFlagPrototyped, spFlags: 0)
!461 = !DISubroutineType(types: !462)
!462 = !{!85, !430, !457, !59}
!463 = !DIImportedEntity(tag: DW_TAG_imported_declaration, scope: !58, entity: !464, file: !346, line: 168)
!464 = !DISubprogram(name: "strtoul", scope: !339, file: !339, line: 180, type: !465, flags: DIFlagPrototyped, spFlags: 0)
!465 = !DISubroutineType(types: !466)
!466 = !{!40, !430, !457, !59}
!467 = !DIImportedEntity(tag: DW_TAG_imported_declaration, scope: !58, entity: !468, file: !346, line: 169)
!468 = !DISubprogram(name: "system", scope: !339, file: !339, line: 784, type: !370, flags: DIFlagPrototyped, spFlags: 0)
!469 = !DIImportedEntity(tag: DW_TAG_imported_declaration, scope: !58, entity: !470, file: !346, line: 171)
!470 = !DISubprogram(name: "wcstombs", scope: !339, file: !339, line: 936, type: !471, flags: DIFlagPrototyped, spFlags: 0)
!471 = !DISubroutineType(types: !472)
!472 = !{!86, !473, !474, !86}
!473 = !DIDerivedType(tag: DW_TAG_restrict_type, baseType: !168)
!474 = !DIDerivedType(tag: DW_TAG_restrict_type, baseType: !475)
!475 = !DIDerivedType(tag: DW_TAG_pointer_type, baseType: !476, size: 64)
!476 = !DIDerivedType(tag: DW_TAG_const_type, baseType: !429)
!477 = !DIImportedEntity(tag: DW_TAG_imported_declaration, scope: !58, entity: !478, file: !346, line: 172)
!478 = !DISubprogram(name: "wctomb", scope: !339, file: !339, line: 929, type: !479, flags: DIFlagPrototyped, spFlags: 0)
!479 = !DISubroutineType(types: !480)
!480 = !{!59, !168, !429}
!481 = !DIImportedEntity(tag: DW_TAG_imported_declaration, scope: !220, entity: !482, file: !346, line: 200)
!482 = !DIDerivedType(tag: DW_TAG_typedef, name: "lldiv_t", file: !339, line: 80, baseType: !483)
!483 = distinct !DICompositeType(tag: DW_TAG_structure_type, file: !339, line: 76, size: 128, flags: DIFlagTypePassByValue, elements: !484, identifier: "_ZTS7lldiv_t")
!484 = !{!485, !487}
!485 = !DIDerivedType(tag: DW_TAG_member, name: "quot", scope: !483, file: !339, line: 78, baseType: !486, size: 64)
!486 = !DIBasicType(name: "long long int", size: 64, encoding: DW_ATE_signed)
!487 = !DIDerivedType(tag: DW_TAG_member, name: "rem", scope: !483, file: !339, line: 79, baseType: !486, size: 64, offset: 64)
!488 = !DIImportedEntity(tag: DW_TAG_imported_declaration, scope: !220, entity: !489, file: !346, line: 206)
!489 = !DISubprogram(name: "_Exit", scope: !339, file: !339, line: 629, type: !397, flags: DIFlagPrototyped | DIFlagNoReturn, spFlags: 0)
!490 = !DIImportedEntity(tag: DW_TAG_imported_declaration, scope: !220, entity: !491, file: !346, line: 210)
!491 = !DISubprogram(name: "llabs", scope: !339, file: !339, line: 844, type: !492, flags: DIFlagPrototyped, spFlags: 0)
!492 = !DISubroutineType(types: !493)
!493 = !{!486, !486}
!494 = !DIImportedEntity(tag: DW_TAG_imported_declaration, scope: !220, entity: !495, file: !346, line: 216)
!495 = !DISubprogram(name: "lldiv", scope: !339, file: !339, line: 858, type: !496, flags: DIFlagPrototyped, spFlags: 0)
!496 = !DISubroutineType(types: !497)
!497 = !{!482, !486, !486}
!498 = !DIImportedEntity(tag: DW_TAG_imported_declaration, scope: !220, entity: !499, file: !346, line: 227)
!499 = !DISubprogram(name: "atoll", scope: !339, file: !339, line: 112, type: !500, flags: DIFlagPrototyped, spFlags: 0)
!500 = !DISubroutineType(types: !501)
!501 = !{!486, !41}
!502 = !DIImportedEntity(tag: DW_TAG_imported_declaration, scope: !220, entity: !503, file: !346, line: 228)
!503 = !DISubprogram(name: "strtoll", scope: !339, file: !339, line: 200, type: !504, flags: DIFlagPrototyped, spFlags: 0)
!504 = !DISubroutineType(types: !505)
!505 = !{!486, !430, !457, !59}
!506 = !DIImportedEntity(tag: DW_TAG_imported_declaration, scope: !220, entity: !507, file: !346, line: 229)
!507 = !DISubprogram(name: "strtoull", scope: !339, file: !339, line: 205, type: !508, flags: DIFlagPrototyped, spFlags: 0)
!508 = !DISubroutineType(types: !509)
!509 = !{!510, !430, !457, !59}
!510 = !DIBasicType(name: "long long unsigned int", size: 64, encoding: DW_ATE_unsigned)
!511 = !DIImportedEntity(tag: DW_TAG_imported_declaration, scope: !220, entity: !512, file: !346, line: 231)
!512 = !DISubprogram(name: "strtof", scope: !339, file: !339, line: 123, type: !513, flags: DIFlagPrototyped, spFlags: 0)
!513 = !DISubroutineType(types: !514)
!514 = !{!77, !430, !457}
!515 = !DIImportedEntity(tag: DW_TAG_imported_declaration, scope: !220, entity: !516, file: !346, line: 232)
!516 = !DISubprogram(name: "strtold", scope: !339, file: !339, line: 126, type: !517, flags: DIFlagPrototyped, spFlags: 0)
!517 = !DISubroutineType(types: !518)
!518 = !{!519, !430, !457}
!519 = !DIBasicType(name: "long double", size: 128, encoding: DW_ATE_float)
!520 = !DIImportedEntity(tag: DW_TAG_imported_declaration, scope: !58, entity: !482, file: !346, line: 240)
!521 = !DIImportedEntity(tag: DW_TAG_imported_declaration, scope: !58, entity: !489, file: !346, line: 242)
!522 = !DIImportedEntity(tag: DW_TAG_imported_declaration, scope: !58, entity: !491, file: !346, line: 244)
!523 = !DIImportedEntity(tag: DW_TAG_imported_declaration, scope: !58, entity: !524, file: !346, line: 245)
!524 = !DISubprogram(name: "div", linkageName: "_ZN9__gnu_cxx3divExx", scope: !220, file: !346, line: 213, type: !496, flags: DIFlagPrototyped, spFlags: 0)
!525 = !DIImportedEntity(tag: DW_TAG_imported_declaration, scope: !58, entity: !495, file: !346, line: 246)
!526 = !DIImportedEntity(tag: DW_TAG_imported_declaration, scope: !58, entity: !499, file: !346, line: 248)
!527 = !DIImportedEntity(tag: DW_TAG_imported_declaration, scope: !58, entity: !512, file: !346, line: 249)
!528 = !DIImportedEntity(tag: DW_TAG_imported_declaration, scope: !58, entity: !503, file: !346, line: 250)
!529 = !DIImportedEntity(tag: DW_TAG_imported_declaration, scope: !58, entity: !507, file: !346, line: 251)
!530 = !DIImportedEntity(tag: DW_TAG_imported_declaration, scope: !58, entity: !516, file: !346, line: 252)
!531 = !DIImportedEntity(tag: DW_TAG_imported_declaration, scope: !58, entity: !532, file: !533, line: 57)
!532 = distinct !DICompositeType(tag: DW_TAG_class_type, name: "exception_ptr", scope: !534, file: !533, line: 79, size: 64, flags: DIFlagTypePassByReference | DIFlagNonTrivial, elements: !535, identifier: "_ZTSNSt15__exception_ptr13exception_ptrE")
!533 = !DIFile(filename: "/usr/bin/../lib/gcc/x86_64-linux-gnu/9/../../../../include/c++/9/bits/exception_ptr.h", directory: "")
!534 = !DINamespace(name: "__exception_ptr", scope: !58)
!535 = !{!536, !537, !541, !544, !545, !550, !551, !555, !560, !564, !568, !571, !572, !575, !578}
!536 = !DIDerivedType(tag: DW_TAG_member, name: "_M_exception_object", scope: !532, file: !533, line: 81, baseType: !380, size: 64)
!537 = !DISubprogram(name: "exception_ptr", scope: !532, file: !533, line: 83, type: !538, scopeLine: 83, flags: DIFlagExplicit | DIFlagPrototyped, spFlags: 0)
!538 = !DISubroutineType(types: !539)
!539 = !{null, !540, !380}
!540 = !DIDerivedType(tag: DW_TAG_pointer_type, baseType: !532, size: 64, flags: DIFlagArtificial | DIFlagObjectPointer)
!541 = !DISubprogram(name: "_M_addref", linkageName: "_ZNSt15__exception_ptr13exception_ptr9_M_addrefEv", scope: !532, file: !533, line: 85, type: !542, scopeLine: 85, flags: DIFlagPrototyped, spFlags: 0)
!542 = !DISubroutineType(types: !543)
!543 = !{null, !540}
!544 = !DISubprogram(name: "_M_release", linkageName: "_ZNSt15__exception_ptr13exception_ptr10_M_releaseEv", scope: !532, file: !533, line: 86, type: !542, scopeLine: 86, flags: DIFlagPrototyped, spFlags: 0)
!545 = !DISubprogram(name: "_M_get", linkageName: "_ZNKSt15__exception_ptr13exception_ptr6_M_getEv", scope: !532, file: !533, line: 88, type: !546, scopeLine: 88, flags: DIFlagPrototyped, spFlags: 0)
!546 = !DISubroutineType(types: !547)
!547 = !{!380, !548}
!548 = !DIDerivedType(tag: DW_TAG_pointer_type, baseType: !549, size: 64, flags: DIFlagArtificial | DIFlagObjectPointer)
!549 = !DIDerivedType(tag: DW_TAG_const_type, baseType: !532)
!550 = !DISubprogram(name: "exception_ptr", scope: !532, file: !533, line: 96, type: !542, scopeLine: 96, flags: DIFlagPublic | DIFlagPrototyped, spFlags: 0)
!551 = !DISubprogram(name: "exception_ptr", scope: !532, file: !533, line: 98, type: !552, scopeLine: 98, flags: DIFlagPublic | DIFlagPrototyped, spFlags: 0)
!552 = !DISubroutineType(types: !553)
!553 = !{null, !540, !554}
!554 = !DIDerivedType(tag: DW_TAG_reference_type, baseType: !549, size: 64)
!555 = !DISubprogram(name: "exception_ptr", scope: !532, file: !533, line: 101, type: !556, scopeLine: 101, flags: DIFlagPublic | DIFlagPrototyped, spFlags: 0)
!556 = !DISubroutineType(types: !557)
!557 = !{null, !540, !558}
!558 = !DIDerivedType(tag: DW_TAG_typedef, name: "nullptr_t", scope: !58, file: !257, line: 262, baseType: !559)
!559 = !DIBasicType(tag: DW_TAG_unspecified_type, name: "decltype(nullptr)")
!560 = !DISubprogram(name: "exception_ptr", scope: !532, file: !533, line: 105, type: !561, scopeLine: 105, flags: DIFlagPublic | DIFlagPrototyped, spFlags: 0)
!561 = !DISubroutineType(types: !562)
!562 = !{null, !540, !563}
!563 = !DIDerivedType(tag: DW_TAG_rvalue_reference_type, baseType: !532, size: 64)
!564 = !DISubprogram(name: "operator=", linkageName: "_ZNSt15__exception_ptr13exception_ptraSERKS0_", scope: !532, file: !533, line: 118, type: !565, scopeLine: 118, flags: DIFlagPublic | DIFlagPrototyped, spFlags: 0)
!565 = !DISubroutineType(types: !566)
!566 = !{!567, !540, !554}
!567 = !DIDerivedType(tag: DW_TAG_reference_type, baseType: !532, size: 64)
!568 = !DISubprogram(name: "operator=", linkageName: "_ZNSt15__exception_ptr13exception_ptraSEOS0_", scope: !532, file: !533, line: 122, type: !569, scopeLine: 122, flags: DIFlagPublic | DIFlagPrototyped, spFlags: 0)
!569 = !DISubroutineType(types: !570)
!570 = !{!567, !540, !563}
!571 = !DISubprogram(name: "~exception_ptr", scope: !532, file: !533, line: 129, type: !542, scopeLine: 129, flags: DIFlagPublic | DIFlagPrototyped, spFlags: 0)
!572 = !DISubprogram(name: "swap", linkageName: "_ZNSt15__exception_ptr13exception_ptr4swapERS0_", scope: !532, file: !533, line: 132, type: !573, scopeLine: 132, flags: DIFlagPublic | DIFlagPrototyped, spFlags: 0)
!573 = !DISubroutineType(types: !574)
!574 = !{null, !540, !567}
!575 = !DISubprogram(name: "operator bool", linkageName: "_ZNKSt15__exception_ptr13exception_ptrcvbEv", scope: !532, file: !533, line: 144, type: !576, scopeLine: 144, flags: DIFlagPublic | DIFlagExplicit | DIFlagPrototyped, spFlags: 0)
!576 = !DISubroutineType(types: !577)
!577 = !{!91, !548}
!578 = !DISubprogram(name: "__cxa_exception_type", linkageName: "_ZNKSt15__exception_ptr13exception_ptr20__cxa_exception_typeEv", scope: !532, file: !533, line: 153, type: !579, scopeLine: 153, flags: DIFlagPublic | DIFlagPrototyped, spFlags: 0)
!579 = !DISubroutineType(types: !580)
!580 = !{!581, !548}
!581 = !DIDerivedType(tag: DW_TAG_pointer_type, baseType: !582, size: 64)
!582 = !DIDerivedType(tag: DW_TAG_const_type, baseType: !583)
!583 = !DICompositeType(tag: DW_TAG_class_type, name: "type_info", scope: !58, file: !584, line: 88, size: 128, flags: DIFlagFwdDecl | DIFlagNonTrivial)
!584 = !DIFile(filename: "/usr/bin/../lib/gcc/x86_64-linux-gnu/9/../../../../include/c++/9/typeinfo", directory: "")
!585 = !DIImportedEntity(tag: DW_TAG_imported_declaration, scope: !534, entity: !586, file: !533, line: 73)
!586 = !DISubprogram(name: "rethrow_exception", linkageName: "_ZSt17rethrow_exceptionNSt15__exception_ptr13exception_ptrE", scope: !58, file: !533, line: 69, type: !587, flags: DIFlagPrototyped | DIFlagNoReturn, spFlags: 0)
!587 = !DISubroutineType(types: !588)
!588 = !{null, !532}
!589 = !DIImportedEntity(tag: DW_TAG_imported_declaration, scope: !58, entity: !78, file: !590, line: 47)
!590 = !DIFile(filename: "/usr/bin/../lib/gcc/x86_64-linux-gnu/9/../../../../include/c++/9/cstdint", directory: "")
!591 = !DIImportedEntity(tag: DW_TAG_imported_declaration, scope: !58, entity: !98, file: !590, line: 48)
!592 = !DIImportedEntity(tag: DW_TAG_imported_declaration, scope: !58, entity: !92, file: !590, line: 49)
!593 = !DIImportedEntity(tag: DW_TAG_imported_declaration, scope: !58, entity: !89, file: !590, line: 50)
!594 = !DIImportedEntity(tag: DW_TAG_imported_declaration, scope: !58, entity: !595, file: !590, line: 52)
!595 = !DIDerivedType(tag: DW_TAG_typedef, name: "int_fast8_t", file: !162, line: 58, baseType: !81)
!596 = !DIImportedEntity(tag: DW_TAG_imported_declaration, scope: !58, entity: !597, file: !590, line: 53)
!597 = !DIDerivedType(tag: DW_TAG_typedef, name: "int_fast16_t", file: !162, line: 60, baseType: !85)
!598 = !DIImportedEntity(tag: DW_TAG_imported_declaration, scope: !58, entity: !599, file: !590, line: 54)
!599 = !DIDerivedType(tag: DW_TAG_typedef, name: "int_fast32_t", file: !162, line: 61, baseType: !85)
!600 = !DIImportedEntity(tag: DW_TAG_imported_declaration, scope: !58, entity: !601, file: !590, line: 55)
!601 = !DIDerivedType(tag: DW_TAG_typedef, name: "int_fast64_t", file: !162, line: 62, baseType: !85)
!602 = !DIImportedEntity(tag: DW_TAG_imported_declaration, scope: !58, entity: !603, file: !590, line: 57)
!603 = !DIDerivedType(tag: DW_TAG_typedef, name: "int_least8_t", file: !162, line: 43, baseType: !604)
!604 = !DIDerivedType(tag: DW_TAG_typedef, name: "__int_least8_t", file: !33, line: 52, baseType: !80)
!605 = !DIImportedEntity(tag: DW_TAG_imported_declaration, scope: !58, entity: !606, file: !590, line: 58)
!606 = !DIDerivedType(tag: DW_TAG_typedef, name: "int_least16_t", file: !162, line: 44, baseType: !607)
!607 = !DIDerivedType(tag: DW_TAG_typedef, name: "__int_least16_t", file: !33, line: 54, baseType: !99)
!608 = !DIImportedEntity(tag: DW_TAG_imported_declaration, scope: !58, entity: !609, file: !590, line: 59)
!609 = !DIDerivedType(tag: DW_TAG_typedef, name: "int_least32_t", file: !162, line: 45, baseType: !610)
!610 = !DIDerivedType(tag: DW_TAG_typedef, name: "__int_least32_t", file: !33, line: 56, baseType: !93)
!611 = !DIImportedEntity(tag: DW_TAG_imported_declaration, scope: !58, entity: !612, file: !590, line: 60)
!612 = !DIDerivedType(tag: DW_TAG_typedef, name: "int_least64_t", file: !162, line: 46, baseType: !613)
!613 = !DIDerivedType(tag: DW_TAG_typedef, name: "__int_least64_t", file: !33, line: 58, baseType: !90)
!614 = !DIImportedEntity(tag: DW_TAG_imported_declaration, scope: !58, entity: !161, file: !590, line: 62)
!615 = !DIImportedEntity(tag: DW_TAG_imported_declaration, scope: !58, entity: !616, file: !590, line: 63)
!616 = !DIDerivedType(tag: DW_TAG_typedef, name: "intptr_t", file: !162, line: 87, baseType: !85)
!617 = !DIImportedEntity(tag: DW_TAG_imported_declaration, scope: !58, entity: !30, file: !590, line: 65)
!618 = !DIImportedEntity(tag: DW_TAG_imported_declaration, scope: !58, entity: !619, file: !590, line: 66)
!619 = !DIDerivedType(tag: DW_TAG_typedef, name: "uint16_t", file: !31, line: 25, baseType: !620)
!620 = !DIDerivedType(tag: DW_TAG_typedef, name: "__uint16_t", file: !33, line: 40, baseType: !621)
!621 = !DIBasicType(name: "unsigned short", size: 16, encoding: DW_ATE_unsigned)
!622 = !DIImportedEntity(tag: DW_TAG_imported_declaration, scope: !58, entity: !623, file: !590, line: 67)
!623 = !DIDerivedType(tag: DW_TAG_typedef, name: "uint32_t", file: !31, line: 26, baseType: !624)
!624 = !DIDerivedType(tag: DW_TAG_typedef, name: "__uint32_t", file: !33, line: 42, baseType: !73)
!625 = !DIImportedEntity(tag: DW_TAG_imported_declaration, scope: !58, entity: !38, file: !590, line: 68)
!626 = !DIImportedEntity(tag: DW_TAG_imported_declaration, scope: !58, entity: !627, file: !590, line: 70)
!627 = !DIDerivedType(tag: DW_TAG_typedef, name: "uint_fast8_t", file: !162, line: 71, baseType: !34)
!628 = !DIImportedEntity(tag: DW_TAG_imported_declaration, scope: !58, entity: !629, file: !590, line: 71)
!629 = !DIDerivedType(tag: DW_TAG_typedef, name: "uint_fast16_t", file: !162, line: 73, baseType: !40)
!630 = !DIImportedEntity(tag: DW_TAG_imported_declaration, scope: !58, entity: !631, file: !590, line: 72)
!631 = !DIDerivedType(tag: DW_TAG_typedef, name: "uint_fast32_t", file: !162, line: 74, baseType: !40)
!632 = !DIImportedEntity(tag: DW_TAG_imported_declaration, scope: !58, entity: !633, file: !590, line: 73)
!633 = !DIDerivedType(tag: DW_TAG_typedef, name: "uint_fast64_t", file: !162, line: 75, baseType: !40)
!634 = !DIImportedEntity(tag: DW_TAG_imported_declaration, scope: !58, entity: !635, file: !590, line: 75)
!635 = !DIDerivedType(tag: DW_TAG_typedef, name: "uint_least8_t", file: !162, line: 49, baseType: !636)
!636 = !DIDerivedType(tag: DW_TAG_typedef, name: "__uint_least8_t", file: !33, line: 53, baseType: !32)
!637 = !DIImportedEntity(tag: DW_TAG_imported_declaration, scope: !58, entity: !638, file: !590, line: 76)
!638 = !DIDerivedType(tag: DW_TAG_typedef, name: "uint_least16_t", file: !162, line: 50, baseType: !639)
!639 = !DIDerivedType(tag: DW_TAG_typedef, name: "__uint_least16_t", file: !33, line: 55, baseType: !620)
!640 = !DIImportedEntity(tag: DW_TAG_imported_declaration, scope: !58, entity: !641, file: !590, line: 77)
!641 = !DIDerivedType(tag: DW_TAG_typedef, name: "uint_least32_t", file: !162, line: 51, baseType: !642)
!642 = !DIDerivedType(tag: DW_TAG_typedef, name: "__uint_least32_t", file: !33, line: 57, baseType: !624)
!643 = !DIImportedEntity(tag: DW_TAG_imported_declaration, scope: !58, entity: !644, file: !590, line: 78)
!644 = !DIDerivedType(tag: DW_TAG_typedef, name: "uint_least64_t", file: !162, line: 52, baseType: !645)
!645 = !DIDerivedType(tag: DW_TAG_typedef, name: "__uint_least64_t", file: !33, line: 59, baseType: !39)
!646 = !DIImportedEntity(tag: DW_TAG_imported_declaration, scope: !58, entity: !647, file: !590, line: 80)
!647 = !DIDerivedType(tag: DW_TAG_typedef, name: "uintmax_t", file: !162, line: 102, baseType: !648)
!648 = !DIDerivedType(tag: DW_TAG_typedef, name: "__uintmax_t", file: !33, line: 73, baseType: !40)
!649 = !DIImportedEntity(tag: DW_TAG_imported_declaration, scope: !58, entity: !650, file: !590, line: 81)
!650 = !DIDerivedType(tag: DW_TAG_typedef, name: "uintptr_t", file: !162, line: 90, baseType: !40)
!651 = !DIImportedEntity(tag: DW_TAG_imported_declaration, scope: !58, entity: !652, file: !655, line: 60)
!652 = !DIDerivedType(tag: DW_TAG_typedef, name: "clock_t", file: !653, line: 7, baseType: !654)
!653 = !DIFile(filename: "/usr/include/x86_64-linux-gnu/bits/types/clock_t.h", directory: "")
!654 = !DIDerivedType(tag: DW_TAG_typedef, name: "__clock_t", file: !33, line: 156, baseType: !85)
!655 = !DIFile(filename: "/usr/bin/../lib/gcc/x86_64-linux-gnu/9/../../../../include/c++/9/ctime", directory: "")
!656 = !DIImportedEntity(tag: DW_TAG_imported_declaration, scope: !58, entity: !657, file: !655, line: 61)
!657 = !DIDerivedType(tag: DW_TAG_typedef, name: "time_t", file: !658, line: 7, baseType: !659)
!658 = !DIFile(filename: "/usr/include/x86_64-linux-gnu/bits/types/time_t.h", directory: "")
!659 = !DIDerivedType(tag: DW_TAG_typedef, name: "__time_t", file: !33, line: 160, baseType: !85)
!660 = !DIImportedEntity(tag: DW_TAG_imported_declaration, scope: !58, entity: !661, file: !655, line: 62)
!661 = distinct !DICompositeType(tag: DW_TAG_structure_type, name: "tm", file: !662, line: 7, size: 448, flags: DIFlagFwdDecl, identifier: "_ZTS2tm")
!662 = !DIFile(filename: "/usr/include/x86_64-linux-gnu/bits/types/struct_tm.h", directory: "")
!663 = !DIImportedEntity(tag: DW_TAG_imported_declaration, scope: !58, entity: !664, file: !655, line: 64)
!664 = !DISubprogram(name: "clock", scope: !665, file: !665, line: 72, type: !666, flags: DIFlagPrototyped, spFlags: 0)
!665 = !DIFile(filename: "/usr/include/time.h", directory: "")
!666 = !DISubroutineType(types: !667)
!667 = !{!652}
!668 = !DIImportedEntity(tag: DW_TAG_imported_declaration, scope: !58, entity: !669, file: !655, line: 65)
!669 = !DISubprogram(name: "difftime", scope: !665, file: !665, line: 78, type: !670, flags: DIFlagPrototyped, spFlags: 0)
!670 = !DISubroutineType(types: !671)
!671 = !{!103, !657, !657}
!672 = !DIImportedEntity(tag: DW_TAG_imported_declaration, scope: !58, entity: !673, file: !655, line: 66)
!673 = !DISubprogram(name: "mktime", scope: !665, file: !665, line: 82, type: !674, flags: DIFlagPrototyped, spFlags: 0)
!674 = !DISubroutineType(types: !675)
!675 = !{!657, !676}
!676 = !DIDerivedType(tag: DW_TAG_pointer_type, baseType: !661, size: 64)
!677 = !DIImportedEntity(tag: DW_TAG_imported_declaration, scope: !58, entity: !678, file: !655, line: 67)
!678 = !DISubprogram(name: "time", scope: !665, file: !665, line: 75, type: !679, flags: DIFlagPrototyped, spFlags: 0)
!679 = !DISubroutineType(types: !680)
!680 = !{!657, !681}
!681 = !DIDerivedType(tag: DW_TAG_pointer_type, baseType: !657, size: 64)
!682 = !DIImportedEntity(tag: DW_TAG_imported_declaration, scope: !58, entity: !683, file: !655, line: 68)
!683 = !DISubprogram(name: "asctime", scope: !665, file: !665, line: 139, type: !684, flags: DIFlagPrototyped, spFlags: 0)
!684 = !DISubroutineType(types: !685)
!685 = !{!168, !686}
!686 = !DIDerivedType(tag: DW_TAG_pointer_type, baseType: !687, size: 64)
!687 = !DIDerivedType(tag: DW_TAG_const_type, baseType: !661)
!688 = !DIImportedEntity(tag: DW_TAG_imported_declaration, scope: !58, entity: !689, file: !655, line: 69)
!689 = !DISubprogram(name: "ctime", scope: !665, file: !665, line: 142, type: !690, flags: DIFlagPrototyped, spFlags: 0)
!690 = !DISubroutineType(types: !691)
!691 = !{!168, !692}
!692 = !DIDerivedType(tag: DW_TAG_pointer_type, baseType: !693, size: 64)
!693 = !DIDerivedType(tag: DW_TAG_const_type, baseType: !657)
!694 = !DIImportedEntity(tag: DW_TAG_imported_declaration, scope: !58, entity: !695, file: !655, line: 70)
!695 = !DISubprogram(name: "gmtime", scope: !665, file: !665, line: 119, type: !696, flags: DIFlagPrototyped, spFlags: 0)
!696 = !DISubroutineType(types: !697)
!697 = !{!676, !692}
!698 = !DIImportedEntity(tag: DW_TAG_imported_declaration, scope: !58, entity: !699, file: !655, line: 71)
!699 = !DISubprogram(name: "localtime", scope: !665, file: !665, line: 123, type: !696, flags: DIFlagPrototyped, spFlags: 0)
!700 = !DIImportedEntity(tag: DW_TAG_imported_declaration, scope: !58, entity: !701, file: !655, line: 72)
!701 = !DISubprogram(name: "strftime", scope: !665, file: !665, line: 88, type: !702, flags: DIFlagPrototyped, spFlags: 0)
!702 = !DISubroutineType(types: !703)
!703 = !{!86, !473, !86, !430, !704}
!704 = !DIDerivedType(tag: DW_TAG_restrict_type, baseType: !686)
!705 = !DIImportedEntity(tag: DW_TAG_imported_module, scope: !106, entity: !706, file: !105, line: 973)
!706 = !DINamespace(name: "chrono_literals", scope: !707, exportSymbols: true)
!707 = !DINamespace(name: "literals", scope: !58, exportSymbols: true)
!708 = !DIImportedEntity(tag: DW_TAG_imported_declaration, scope: !58, entity: !709, file: !713, line: 83)
!709 = !DISubprogram(name: "acos", scope: !710, file: !710, line: 53, type: !711, flags: DIFlagPrototyped, spFlags: 0)
!710 = !DIFile(filename: "/usr/include/x86_64-linux-gnu/bits/mathcalls.h", directory: "")
!711 = !DISubroutineType(types: !712)
!712 = !{!103, !103}
!713 = !DIFile(filename: "/usr/bin/../lib/gcc/x86_64-linux-gnu/9/../../../../include/c++/9/cmath", directory: "")
!714 = !DIImportedEntity(tag: DW_TAG_imported_declaration, scope: !58, entity: !715, file: !713, line: 102)
!715 = !DISubprogram(name: "asin", scope: !710, file: !710, line: 55, type: !711, flags: DIFlagPrototyped, spFlags: 0)
!716 = !DIImportedEntity(tag: DW_TAG_imported_declaration, scope: !58, entity: !717, file: !713, line: 121)
!717 = !DISubprogram(name: "atan", scope: !710, file: !710, line: 57, type: !711, flags: DIFlagPrototyped, spFlags: 0)
!718 = !DIImportedEntity(tag: DW_TAG_imported_declaration, scope: !58, entity: !719, file: !713, line: 140)
!719 = !DISubprogram(name: "atan2", scope: !710, file: !710, line: 59, type: !720, flags: DIFlagPrototyped, spFlags: 0)
!720 = !DISubroutineType(types: !721)
!721 = !{!103, !103, !103}
!722 = !DIImportedEntity(tag: DW_TAG_imported_declaration, scope: !58, entity: !723, file: !713, line: 161)
!723 = !DISubprogram(name: "ceil", scope: !710, file: !710, line: 159, type: !711, flags: DIFlagPrototyped, spFlags: 0)
!724 = !DIImportedEntity(tag: DW_TAG_imported_declaration, scope: !58, entity: !725, file: !713, line: 180)
!725 = !DISubprogram(name: "cos", scope: !710, file: !710, line: 62, type: !711, flags: DIFlagPrototyped, spFlags: 0)
!726 = !DIImportedEntity(tag: DW_TAG_imported_declaration, scope: !58, entity: !727, file: !713, line: 199)
!727 = !DISubprogram(name: "cosh", scope: !710, file: !710, line: 71, type: !711, flags: DIFlagPrototyped, spFlags: 0)
!728 = !DIImportedEntity(tag: DW_TAG_imported_declaration, scope: !58, entity: !729, file: !713, line: 218)
!729 = !DISubprogram(name: "exp", scope: !710, file: !710, line: 95, type: !711, flags: DIFlagPrototyped, spFlags: 0)
!730 = !DIImportedEntity(tag: DW_TAG_imported_declaration, scope: !58, entity: !731, file: !713, line: 237)
!731 = !DISubprogram(name: "fabs", scope: !710, file: !710, line: 162, type: !711, flags: DIFlagPrototyped, spFlags: 0)
!732 = !DIImportedEntity(tag: DW_TAG_imported_declaration, scope: !58, entity: !733, file: !713, line: 256)
!733 = !DISubprogram(name: "floor", scope: !710, file: !710, line: 165, type: !711, flags: DIFlagPrototyped, spFlags: 0)
!734 = !DIImportedEntity(tag: DW_TAG_imported_declaration, scope: !58, entity: !735, file: !713, line: 275)
!735 = !DISubprogram(name: "fmod", scope: !710, file: !710, line: 168, type: !720, flags: DIFlagPrototyped, spFlags: 0)
!736 = !DIImportedEntity(tag: DW_TAG_imported_declaration, scope: !58, entity: !737, file: !713, line: 296)
!737 = !DISubprogram(name: "frexp", scope: !710, file: !710, line: 98, type: !738, flags: DIFlagPrototyped, spFlags: 0)
!738 = !DISubroutineType(types: !739)
!739 = !{!103, !103, !286}
!740 = !DIImportedEntity(tag: DW_TAG_imported_declaration, scope: !58, entity: !741, file: !713, line: 315)
!741 = !DISubprogram(name: "ldexp", scope: !710, file: !710, line: 101, type: !742, flags: DIFlagPrototyped, spFlags: 0)
!742 = !DISubroutineType(types: !743)
!743 = !{!103, !103, !59}
!744 = !DIImportedEntity(tag: DW_TAG_imported_declaration, scope: !58, entity: !745, file: !713, line: 334)
!745 = !DISubprogram(name: "log", scope: !710, file: !710, line: 104, type: !711, flags: DIFlagPrototyped, spFlags: 0)
!746 = !DIImportedEntity(tag: DW_TAG_imported_declaration, scope: !58, entity: !747, file: !713, line: 353)
!747 = !DISubprogram(name: "log10", scope: !710, file: !710, line: 107, type: !711, flags: DIFlagPrototyped, spFlags: 0)
!748 = !DIImportedEntity(tag: DW_TAG_imported_declaration, scope: !58, entity: !749, file: !713, line: 372)
!749 = !DISubprogram(name: "modf", scope: !710, file: !710, line: 110, type: !750, flags: DIFlagPrototyped, spFlags: 0)
!750 = !DISubroutineType(types: !751)
!751 = !{!103, !103, !752}
!752 = !DIDerivedType(tag: DW_TAG_pointer_type, baseType: !103, size: 64)
!753 = !DIImportedEntity(tag: DW_TAG_imported_declaration, scope: !58, entity: !754, file: !713, line: 384)
!754 = !DISubprogram(name: "pow", scope: !710, file: !710, line: 140, type: !720, flags: DIFlagPrototyped, spFlags: 0)
!755 = !DIImportedEntity(tag: DW_TAG_imported_declaration, scope: !58, entity: !756, file: !713, line: 421)
!756 = !DISubprogram(name: "sin", scope: !710, file: !710, line: 64, type: !711, flags: DIFlagPrototyped, spFlags: 0)
!757 = !DIImportedEntity(tag: DW_TAG_imported_declaration, scope: !58, entity: !758, file: !713, line: 440)
!758 = !DISubprogram(name: "sinh", scope: !710, file: !710, line: 73, type: !711, flags: DIFlagPrototyped, spFlags: 0)
!759 = !DIImportedEntity(tag: DW_TAG_imported_declaration, scope: !58, entity: !760, file: !713, line: 459)
!760 = !DISubprogram(name: "sqrt", scope: !710, file: !710, line: 143, type: !711, flags: DIFlagPrototyped, spFlags: 0)
!761 = !DIImportedEntity(tag: DW_TAG_imported_declaration, scope: !58, entity: !762, file: !713, line: 478)
!762 = !DISubprogram(name: "tan", scope: !710, file: !710, line: 66, type: !711, flags: DIFlagPrototyped, spFlags: 0)
!763 = !DIImportedEntity(tag: DW_TAG_imported_declaration, scope: !58, entity: !764, file: !713, line: 497)
!764 = !DISubprogram(name: "tanh", scope: !710, file: !710, line: 75, type: !711, flags: DIFlagPrototyped, spFlags: 0)
!765 = !DIImportedEntity(tag: DW_TAG_imported_declaration, scope: !58, entity: !766, file: !713, line: 1065)
!766 = !DIDerivedType(tag: DW_TAG_typedef, name: "double_t", file: !767, line: 150, baseType: !103)
!767 = !DIFile(filename: "/usr/include/math.h", directory: "")
!768 = !DIImportedEntity(tag: DW_TAG_imported_declaration, scope: !58, entity: !769, file: !713, line: 1066)
!769 = !DIDerivedType(tag: DW_TAG_typedef, name: "float_t", file: !767, line: 149, baseType: !77)
!770 = !DIImportedEntity(tag: DW_TAG_imported_declaration, scope: !58, entity: !771, file: !713, line: 1069)
!771 = !DISubprogram(name: "acosh", scope: !710, file: !710, line: 85, type: !711, flags: DIFlagPrototyped, spFlags: 0)
!772 = !DIImportedEntity(tag: DW_TAG_imported_declaration, scope: !58, entity: !773, file: !713, line: 1070)
!773 = !DISubprogram(name: "acoshf", scope: !710, file: !710, line: 85, type: !774, flags: DIFlagPrototyped, spFlags: 0)
!774 = !DISubroutineType(types: !775)
!775 = !{!77, !77}
!776 = !DIImportedEntity(tag: DW_TAG_imported_declaration, scope: !58, entity: !777, file: !713, line: 1071)
!777 = !DISubprogram(name: "acoshl", scope: !710, file: !710, line: 85, type: !778, flags: DIFlagPrototyped, spFlags: 0)
!778 = !DISubroutineType(types: !779)
!779 = !{!519, !519}
!780 = !DIImportedEntity(tag: DW_TAG_imported_declaration, scope: !58, entity: !781, file: !713, line: 1073)
!781 = !DISubprogram(name: "asinh", scope: !710, file: !710, line: 87, type: !711, flags: DIFlagPrototyped, spFlags: 0)
!782 = !DIImportedEntity(tag: DW_TAG_imported_declaration, scope: !58, entity: !783, file: !713, line: 1074)
!783 = !DISubprogram(name: "asinhf", scope: !710, file: !710, line: 87, type: !774, flags: DIFlagPrototyped, spFlags: 0)
!784 = !DIImportedEntity(tag: DW_TAG_imported_declaration, scope: !58, entity: !785, file: !713, line: 1075)
!785 = !DISubprogram(name: "asinhl", scope: !710, file: !710, line: 87, type: !778, flags: DIFlagPrototyped, spFlags: 0)
!786 = !DIImportedEntity(tag: DW_TAG_imported_declaration, scope: !58, entity: !787, file: !713, line: 1077)
!787 = !DISubprogram(name: "atanh", scope: !710, file: !710, line: 89, type: !711, flags: DIFlagPrototyped, spFlags: 0)
!788 = !DIImportedEntity(tag: DW_TAG_imported_declaration, scope: !58, entity: !789, file: !713, line: 1078)
!789 = !DISubprogram(name: "atanhf", scope: !710, file: !710, line: 89, type: !774, flags: DIFlagPrototyped, spFlags: 0)
!790 = !DIImportedEntity(tag: DW_TAG_imported_declaration, scope: !58, entity: !791, file: !713, line: 1079)
!791 = !DISubprogram(name: "atanhl", scope: !710, file: !710, line: 89, type: !778, flags: DIFlagPrototyped, spFlags: 0)
!792 = !DIImportedEntity(tag: DW_TAG_imported_declaration, scope: !58, entity: !793, file: !713, line: 1081)
!793 = !DISubprogram(name: "cbrt", scope: !710, file: !710, line: 152, type: !711, flags: DIFlagPrototyped, spFlags: 0)
!794 = !DIImportedEntity(tag: DW_TAG_imported_declaration, scope: !58, entity: !795, file: !713, line: 1082)
!795 = !DISubprogram(name: "cbrtf", scope: !710, file: !710, line: 152, type: !774, flags: DIFlagPrototyped, spFlags: 0)
!796 = !DIImportedEntity(tag: DW_TAG_imported_declaration, scope: !58, entity: !797, file: !713, line: 1083)
!797 = !DISubprogram(name: "cbrtl", scope: !710, file: !710, line: 152, type: !778, flags: DIFlagPrototyped, spFlags: 0)
!798 = !DIImportedEntity(tag: DW_TAG_imported_declaration, scope: !58, entity: !799, file: !713, line: 1085)
!799 = !DISubprogram(name: "copysign", scope: !710, file: !710, line: 196, type: !720, flags: DIFlagPrototyped, spFlags: 0)
!800 = !DIImportedEntity(tag: DW_TAG_imported_declaration, scope: !58, entity: !801, file: !713, line: 1086)
!801 = !DISubprogram(name: "copysignf", scope: !710, file: !710, line: 196, type: !802, flags: DIFlagPrototyped, spFlags: 0)
!802 = !DISubroutineType(types: !803)
!803 = !{!77, !77, !77}
!804 = !DIImportedEntity(tag: DW_TAG_imported_declaration, scope: !58, entity: !805, file: !713, line: 1087)
!805 = !DISubprogram(name: "copysignl", scope: !710, file: !710, line: 196, type: !806, flags: DIFlagPrototyped, spFlags: 0)
!806 = !DISubroutineType(types: !807)
!807 = !{!519, !519, !519}
!808 = !DIImportedEntity(tag: DW_TAG_imported_declaration, scope: !58, entity: !809, file: !713, line: 1089)
!809 = !DISubprogram(name: "erf", scope: !710, file: !710, line: 228, type: !711, flags: DIFlagPrototyped, spFlags: 0)
!810 = !DIImportedEntity(tag: DW_TAG_imported_declaration, scope: !58, entity: !811, file: !713, line: 1090)
!811 = !DISubprogram(name: "erff", scope: !710, file: !710, line: 228, type: !774, flags: DIFlagPrototyped, spFlags: 0)
!812 = !DIImportedEntity(tag: DW_TAG_imported_declaration, scope: !58, entity: !813, file: !713, line: 1091)
!813 = !DISubprogram(name: "erfl", scope: !710, file: !710, line: 228, type: !778, flags: DIFlagPrototyped, spFlags: 0)
!814 = !DIImportedEntity(tag: DW_TAG_imported_declaration, scope: !58, entity: !815, file: !713, line: 1093)
!815 = !DISubprogram(name: "erfc", scope: !710, file: !710, line: 229, type: !711, flags: DIFlagPrototyped, spFlags: 0)
!816 = !DIImportedEntity(tag: DW_TAG_imported_declaration, scope: !58, entity: !817, file: !713, line: 1094)
!817 = !DISubprogram(name: "erfcf", scope: !710, file: !710, line: 229, type: !774, flags: DIFlagPrototyped, spFlags: 0)
!818 = !DIImportedEntity(tag: DW_TAG_imported_declaration, scope: !58, entity: !819, file: !713, line: 1095)
!819 = !DISubprogram(name: "erfcl", scope: !710, file: !710, line: 229, type: !778, flags: DIFlagPrototyped, spFlags: 0)
!820 = !DIImportedEntity(tag: DW_TAG_imported_declaration, scope: !58, entity: !821, file: !713, line: 1097)
!821 = !DISubprogram(name: "exp2", scope: !710, file: !710, line: 130, type: !711, flags: DIFlagPrototyped, spFlags: 0)
!822 = !DIImportedEntity(tag: DW_TAG_imported_declaration, scope: !58, entity: !823, file: !713, line: 1098)
!823 = !DISubprogram(name: "exp2f", scope: !710, file: !710, line: 130, type: !774, flags: DIFlagPrototyped, spFlags: 0)
!824 = !DIImportedEntity(tag: DW_TAG_imported_declaration, scope: !58, entity: !825, file: !713, line: 1099)
!825 = !DISubprogram(name: "exp2l", scope: !710, file: !710, line: 130, type: !778, flags: DIFlagPrototyped, spFlags: 0)
!826 = !DIImportedEntity(tag: DW_TAG_imported_declaration, scope: !58, entity: !827, file: !713, line: 1101)
!827 = !DISubprogram(name: "expm1", scope: !710, file: !710, line: 119, type: !711, flags: DIFlagPrototyped, spFlags: 0)
!828 = !DIImportedEntity(tag: DW_TAG_imported_declaration, scope: !58, entity: !829, file: !713, line: 1102)
!829 = !DISubprogram(name: "expm1f", scope: !710, file: !710, line: 119, type: !774, flags: DIFlagPrototyped, spFlags: 0)
!830 = !DIImportedEntity(tag: DW_TAG_imported_declaration, scope: !58, entity: !831, file: !713, line: 1103)
!831 = !DISubprogram(name: "expm1l", scope: !710, file: !710, line: 119, type: !778, flags: DIFlagPrototyped, spFlags: 0)
!832 = !DIImportedEntity(tag: DW_TAG_imported_declaration, scope: !58, entity: !833, file: !713, line: 1105)
!833 = !DISubprogram(name: "fdim", scope: !710, file: !710, line: 326, type: !720, flags: DIFlagPrototyped, spFlags: 0)
!834 = !DIImportedEntity(tag: DW_TAG_imported_declaration, scope: !58, entity: !835, file: !713, line: 1106)
!835 = !DISubprogram(name: "fdimf", scope: !710, file: !710, line: 326, type: !802, flags: DIFlagPrototyped, spFlags: 0)
!836 = !DIImportedEntity(tag: DW_TAG_imported_declaration, scope: !58, entity: !837, file: !713, line: 1107)
!837 = !DISubprogram(name: "fdiml", scope: !710, file: !710, line: 326, type: !806, flags: DIFlagPrototyped, spFlags: 0)
!838 = !DIImportedEntity(tag: DW_TAG_imported_declaration, scope: !58, entity: !839, file: !713, line: 1109)
!839 = !DISubprogram(name: "fma", scope: !710, file: !710, line: 335, type: !840, flags: DIFlagPrototyped, spFlags: 0)
!840 = !DISubroutineType(types: !841)
!841 = !{!103, !103, !103, !103}
!842 = !DIImportedEntity(tag: DW_TAG_imported_declaration, scope: !58, entity: !843, file: !713, line: 1110)
!843 = !DISubprogram(name: "fmaf", scope: !710, file: !710, line: 335, type: !844, flags: DIFlagPrototyped, spFlags: 0)
!844 = !DISubroutineType(types: !845)
!845 = !{!77, !77, !77, !77}
!846 = !DIImportedEntity(tag: DW_TAG_imported_declaration, scope: !58, entity: !847, file: !713, line: 1111)
!847 = !DISubprogram(name: "fmal", scope: !710, file: !710, line: 335, type: !848, flags: DIFlagPrototyped, spFlags: 0)
!848 = !DISubroutineType(types: !849)
!849 = !{!519, !519, !519, !519}
!850 = !DIImportedEntity(tag: DW_TAG_imported_declaration, scope: !58, entity: !851, file: !713, line: 1113)
!851 = !DISubprogram(name: "fmax", scope: !710, file: !710, line: 329, type: !720, flags: DIFlagPrototyped, spFlags: 0)
!852 = !DIImportedEntity(tag: DW_TAG_imported_declaration, scope: !58, entity: !853, file: !713, line: 1114)
!853 = !DISubprogram(name: "fmaxf", scope: !710, file: !710, line: 329, type: !802, flags: DIFlagPrototyped, spFlags: 0)
!854 = !DIImportedEntity(tag: DW_TAG_imported_declaration, scope: !58, entity: !855, file: !713, line: 1115)
!855 = !DISubprogram(name: "fmaxl", scope: !710, file: !710, line: 329, type: !806, flags: DIFlagPrototyped, spFlags: 0)
!856 = !DIImportedEntity(tag: DW_TAG_imported_declaration, scope: !58, entity: !857, file: !713, line: 1117)
!857 = !DISubprogram(name: "fmin", scope: !710, file: !710, line: 332, type: !720, flags: DIFlagPrototyped, spFlags: 0)
!858 = !DIImportedEntity(tag: DW_TAG_imported_declaration, scope: !58, entity: !859, file: !713, line: 1118)
!859 = !DISubprogram(name: "fminf", scope: !710, file: !710, line: 332, type: !802, flags: DIFlagPrototyped, spFlags: 0)
!860 = !DIImportedEntity(tag: DW_TAG_imported_declaration, scope: !58, entity: !861, file: !713, line: 1119)
!861 = !DISubprogram(name: "fminl", scope: !710, file: !710, line: 332, type: !806, flags: DIFlagPrototyped, spFlags: 0)
!862 = !DIImportedEntity(tag: DW_TAG_imported_declaration, scope: !58, entity: !863, file: !713, line: 1121)
!863 = !DISubprogram(name: "hypot", scope: !710, file: !710, line: 147, type: !720, flags: DIFlagPrototyped, spFlags: 0)
!864 = !DIImportedEntity(tag: DW_TAG_imported_declaration, scope: !58, entity: !865, file: !713, line: 1122)
!865 = !DISubprogram(name: "hypotf", scope: !710, file: !710, line: 147, type: !802, flags: DIFlagPrototyped, spFlags: 0)
!866 = !DIImportedEntity(tag: DW_TAG_imported_declaration, scope: !58, entity: !867, file: !713, line: 1123)
!867 = !DISubprogram(name: "hypotl", scope: !710, file: !710, line: 147, type: !806, flags: DIFlagPrototyped, spFlags: 0)
!868 = !DIImportedEntity(tag: DW_TAG_imported_declaration, scope: !58, entity: !869, file: !713, line: 1125)
!869 = !DISubprogram(name: "ilogb", scope: !710, file: !710, line: 280, type: !870, flags: DIFlagPrototyped, spFlags: 0)
!870 = !DISubroutineType(types: !871)
!871 = !{!59, !103}
!872 = !DIImportedEntity(tag: DW_TAG_imported_declaration, scope: !58, entity: !873, file: !713, line: 1126)
!873 = !DISubprogram(name: "ilogbf", scope: !710, file: !710, line: 280, type: !874, flags: DIFlagPrototyped, spFlags: 0)
!874 = !DISubroutineType(types: !875)
!875 = !{!59, !77}
!876 = !DIImportedEntity(tag: DW_TAG_imported_declaration, scope: !58, entity: !877, file: !713, line: 1127)
!877 = !DISubprogram(name: "ilogbl", scope: !710, file: !710, line: 280, type: !878, flags: DIFlagPrototyped, spFlags: 0)
!878 = !DISubroutineType(types: !879)
!879 = !{!59, !519}
!880 = !DIImportedEntity(tag: DW_TAG_imported_declaration, scope: !58, entity: !881, file: !713, line: 1129)
!881 = !DISubprogram(name: "lgamma", scope: !710, file: !710, line: 230, type: !711, flags: DIFlagPrototyped, spFlags: 0)
!882 = !DIImportedEntity(tag: DW_TAG_imported_declaration, scope: !58, entity: !883, file: !713, line: 1130)
!883 = !DISubprogram(name: "lgammaf", scope: !710, file: !710, line: 230, type: !774, flags: DIFlagPrototyped, spFlags: 0)
!884 = !DIImportedEntity(tag: DW_TAG_imported_declaration, scope: !58, entity: !885, file: !713, line: 1131)
!885 = !DISubprogram(name: "lgammal", scope: !710, file: !710, line: 230, type: !778, flags: DIFlagPrototyped, spFlags: 0)
!886 = !DIImportedEntity(tag: DW_TAG_imported_declaration, scope: !58, entity: !887, file: !713, line: 1134)
!887 = !DISubprogram(name: "llrint", scope: !710, file: !710, line: 316, type: !888, flags: DIFlagPrototyped, spFlags: 0)
!888 = !DISubroutineType(types: !889)
!889 = !{!486, !103}
!890 = !DIImportedEntity(tag: DW_TAG_imported_declaration, scope: !58, entity: !891, file: !713, line: 1135)
!891 = !DISubprogram(name: "llrintf", scope: !710, file: !710, line: 316, type: !892, flags: DIFlagPrototyped, spFlags: 0)
!892 = !DISubroutineType(types: !893)
!893 = !{!486, !77}
!894 = !DIImportedEntity(tag: DW_TAG_imported_declaration, scope: !58, entity: !895, file: !713, line: 1136)
!895 = !DISubprogram(name: "llrintl", scope: !710, file: !710, line: 316, type: !896, flags: DIFlagPrototyped, spFlags: 0)
!896 = !DISubroutineType(types: !897)
!897 = !{!486, !519}
!898 = !DIImportedEntity(tag: DW_TAG_imported_declaration, scope: !58, entity: !899, file: !713, line: 1138)
!899 = !DISubprogram(name: "llround", scope: !710, file: !710, line: 322, type: !888, flags: DIFlagPrototyped, spFlags: 0)
!900 = !DIImportedEntity(tag: DW_TAG_imported_declaration, scope: !58, entity: !901, file: !713, line: 1139)
!901 = !DISubprogram(name: "llroundf", scope: !710, file: !710, line: 322, type: !892, flags: DIFlagPrototyped, spFlags: 0)
!902 = !DIImportedEntity(tag: DW_TAG_imported_declaration, scope: !58, entity: !903, file: !713, line: 1140)
!903 = !DISubprogram(name: "llroundl", scope: !710, file: !710, line: 322, type: !896, flags: DIFlagPrototyped, spFlags: 0)
!904 = !DIImportedEntity(tag: DW_TAG_imported_declaration, scope: !58, entity: !905, file: !713, line: 1143)
!905 = !DISubprogram(name: "log1p", scope: !710, file: !710, line: 122, type: !711, flags: DIFlagPrototyped, spFlags: 0)
!906 = !DIImportedEntity(tag: DW_TAG_imported_declaration, scope: !58, entity: !907, file: !713, line: 1144)
!907 = !DISubprogram(name: "log1pf", scope: !710, file: !710, line: 122, type: !774, flags: DIFlagPrototyped, spFlags: 0)
!908 = !DIImportedEntity(tag: DW_TAG_imported_declaration, scope: !58, entity: !909, file: !713, line: 1145)
!909 = !DISubprogram(name: "log1pl", scope: !710, file: !710, line: 122, type: !778, flags: DIFlagPrototyped, spFlags: 0)
!910 = !DIImportedEntity(tag: DW_TAG_imported_declaration, scope: !58, entity: !911, file: !713, line: 1147)
!911 = !DISubprogram(name: "log2", scope: !710, file: !710, line: 133, type: !711, flags: DIFlagPrototyped, spFlags: 0)
!912 = !DIImportedEntity(tag: DW_TAG_imported_declaration, scope: !58, entity: !913, file: !713, line: 1148)
!913 = !DISubprogram(name: "log2f", scope: !710, file: !710, line: 133, type: !774, flags: DIFlagPrototyped, spFlags: 0)
!914 = !DIImportedEntity(tag: DW_TAG_imported_declaration, scope: !58, entity: !915, file: !713, line: 1149)
!915 = !DISubprogram(name: "log2l", scope: !710, file: !710, line: 133, type: !778, flags: DIFlagPrototyped, spFlags: 0)
!916 = !DIImportedEntity(tag: DW_TAG_imported_declaration, scope: !58, entity: !917, file: !713, line: 1151)
!917 = !DISubprogram(name: "logb", scope: !710, file: !710, line: 125, type: !711, flags: DIFlagPrototyped, spFlags: 0)
!918 = !DIImportedEntity(tag: DW_TAG_imported_declaration, scope: !58, entity: !919, file: !713, line: 1152)
!919 = !DISubprogram(name: "logbf", scope: !710, file: !710, line: 125, type: !774, flags: DIFlagPrototyped, spFlags: 0)
!920 = !DIImportedEntity(tag: DW_TAG_imported_declaration, scope: !58, entity: !921, file: !713, line: 1153)
!921 = !DISubprogram(name: "logbl", scope: !710, file: !710, line: 125, type: !778, flags: DIFlagPrototyped, spFlags: 0)
!922 = !DIImportedEntity(tag: DW_TAG_imported_declaration, scope: !58, entity: !923, file: !713, line: 1155)
!923 = !DISubprogram(name: "lrint", scope: !710, file: !710, line: 314, type: !924, flags: DIFlagPrototyped, spFlags: 0)
!924 = !DISubroutineType(types: !925)
!925 = !{!85, !103}
!926 = !DIImportedEntity(tag: DW_TAG_imported_declaration, scope: !58, entity: !927, file: !713, line: 1156)
!927 = !DISubprogram(name: "lrintf", scope: !710, file: !710, line: 314, type: !928, flags: DIFlagPrototyped, spFlags: 0)
!928 = !DISubroutineType(types: !929)
!929 = !{!85, !77}
!930 = !DIImportedEntity(tag: DW_TAG_imported_declaration, scope: !58, entity: !931, file: !713, line: 1157)
!931 = !DISubprogram(name: "lrintl", scope: !710, file: !710, line: 314, type: !932, flags: DIFlagPrototyped, spFlags: 0)
!932 = !DISubroutineType(types: !933)
!933 = !{!85, !519}
!934 = !DIImportedEntity(tag: DW_TAG_imported_declaration, scope: !58, entity: !935, file: !713, line: 1159)
!935 = !DISubprogram(name: "lround", scope: !710, file: !710, line: 320, type: !924, flags: DIFlagPrototyped, spFlags: 0)
!936 = !DIImportedEntity(tag: DW_TAG_imported_declaration, scope: !58, entity: !937, file: !713, line: 1160)
!937 = !DISubprogram(name: "lroundf", scope: !710, file: !710, line: 320, type: !928, flags: DIFlagPrototyped, spFlags: 0)
!938 = !DIImportedEntity(tag: DW_TAG_imported_declaration, scope: !58, entity: !939, file: !713, line: 1161)
!939 = !DISubprogram(name: "lroundl", scope: !710, file: !710, line: 320, type: !932, flags: DIFlagPrototyped, spFlags: 0)
!940 = !DIImportedEntity(tag: DW_TAG_imported_declaration, scope: !58, entity: !941, file: !713, line: 1163)
!941 = !DISubprogram(name: "nan", scope: !710, file: !710, line: 201, type: !366, flags: DIFlagPrototyped, spFlags: 0)
!942 = !DIImportedEntity(tag: DW_TAG_imported_declaration, scope: !58, entity: !943, file: !713, line: 1164)
!943 = !DISubprogram(name: "nanf", scope: !710, file: !710, line: 201, type: !944, flags: DIFlagPrototyped, spFlags: 0)
!944 = !DISubroutineType(types: !945)
!945 = !{!77, !41}
!946 = !DIImportedEntity(tag: DW_TAG_imported_declaration, scope: !58, entity: !947, file: !713, line: 1165)
!947 = !DISubprogram(name: "nanl", scope: !710, file: !710, line: 201, type: !948, flags: DIFlagPrototyped, spFlags: 0)
!948 = !DISubroutineType(types: !949)
!949 = !{!519, !41}
!950 = !DIImportedEntity(tag: DW_TAG_imported_declaration, scope: !58, entity: !951, file: !713, line: 1167)
!951 = !DISubprogram(name: "nearbyint", scope: !710, file: !710, line: 294, type: !711, flags: DIFlagPrototyped, spFlags: 0)
!952 = !DIImportedEntity(tag: DW_TAG_imported_declaration, scope: !58, entity: !953, file: !713, line: 1168)
!953 = !DISubprogram(name: "nearbyintf", scope: !710, file: !710, line: 294, type: !774, flags: DIFlagPrototyped, spFlags: 0)
!954 = !DIImportedEntity(tag: DW_TAG_imported_declaration, scope: !58, entity: !955, file: !713, line: 1169)
!955 = !DISubprogram(name: "nearbyintl", scope: !710, file: !710, line: 294, type: !778, flags: DIFlagPrototyped, spFlags: 0)
!956 = !DIImportedEntity(tag: DW_TAG_imported_declaration, scope: !58, entity: !957, file: !713, line: 1171)
!957 = !DISubprogram(name: "nextafter", scope: !710, file: !710, line: 259, type: !720, flags: DIFlagPrototyped, spFlags: 0)
!958 = !DIImportedEntity(tag: DW_TAG_imported_declaration, scope: !58, entity: !959, file: !713, line: 1172)
!959 = !DISubprogram(name: "nextafterf", scope: !710, file: !710, line: 259, type: !802, flags: DIFlagPrototyped, spFlags: 0)
!960 = !DIImportedEntity(tag: DW_TAG_imported_declaration, scope: !58, entity: !961, file: !713, line: 1173)
!961 = !DISubprogram(name: "nextafterl", scope: !710, file: !710, line: 259, type: !806, flags: DIFlagPrototyped, spFlags: 0)
!962 = !DIImportedEntity(tag: DW_TAG_imported_declaration, scope: !58, entity: !963, file: !713, line: 1175)
!963 = !DISubprogram(name: "nexttoward", scope: !710, file: !710, line: 261, type: !964, flags: DIFlagPrototyped, spFlags: 0)
!964 = !DISubroutineType(types: !965)
!965 = !{!103, !103, !519}
!966 = !DIImportedEntity(tag: DW_TAG_imported_declaration, scope: !58, entity: !967, file: !713, line: 1176)
!967 = !DISubprogram(name: "nexttowardf", scope: !710, file: !710, line: 261, type: !968, flags: DIFlagPrototyped, spFlags: 0)
!968 = !DISubroutineType(types: !969)
!969 = !{!77, !77, !519}
!970 = !DIImportedEntity(tag: DW_TAG_imported_declaration, scope: !58, entity: !971, file: !713, line: 1177)
!971 = !DISubprogram(name: "nexttowardl", scope: !710, file: !710, line: 261, type: !806, flags: DIFlagPrototyped, spFlags: 0)
!972 = !DIImportedEntity(tag: DW_TAG_imported_declaration, scope: !58, entity: !973, file: !713, line: 1179)
!973 = !DISubprogram(name: "remainder", scope: !710, file: !710, line: 272, type: !720, flags: DIFlagPrototyped, spFlags: 0)
!974 = !DIImportedEntity(tag: DW_TAG_imported_declaration, scope: !58, entity: !975, file: !713, line: 1180)
!975 = !DISubprogram(name: "remainderf", scope: !710, file: !710, line: 272, type: !802, flags: DIFlagPrototyped, spFlags: 0)
!976 = !DIImportedEntity(tag: DW_TAG_imported_declaration, scope: !58, entity: !977, file: !713, line: 1181)
!977 = !DISubprogram(name: "remainderl", scope: !710, file: !710, line: 272, type: !806, flags: DIFlagPrototyped, spFlags: 0)
!978 = !DIImportedEntity(tag: DW_TAG_imported_declaration, scope: !58, entity: !979, file: !713, line: 1183)
!979 = !DISubprogram(name: "remquo", scope: !710, file: !710, line: 307, type: !980, flags: DIFlagPrototyped, spFlags: 0)
!980 = !DISubroutineType(types: !981)
!981 = !{!103, !103, !103, !286}
!982 = !DIImportedEntity(tag: DW_TAG_imported_declaration, scope: !58, entity: !983, file: !713, line: 1184)
!983 = !DISubprogram(name: "remquof", scope: !710, file: !710, line: 307, type: !984, flags: DIFlagPrototyped, spFlags: 0)
!984 = !DISubroutineType(types: !985)
!985 = !{!77, !77, !77, !286}
!986 = !DIImportedEntity(tag: DW_TAG_imported_declaration, scope: !58, entity: !987, file: !713, line: 1185)
!987 = !DISubprogram(name: "remquol", scope: !710, file: !710, line: 307, type: !988, flags: DIFlagPrototyped, spFlags: 0)
!988 = !DISubroutineType(types: !989)
!989 = !{!519, !519, !519, !286}
!990 = !DIImportedEntity(tag: DW_TAG_imported_declaration, scope: !58, entity: !991, file: !713, line: 1187)
!991 = !DISubprogram(name: "rint", scope: !710, file: !710, line: 256, type: !711, flags: DIFlagPrototyped, spFlags: 0)
!992 = !DIImportedEntity(tag: DW_TAG_imported_declaration, scope: !58, entity: !993, file: !713, line: 1188)
!993 = !DISubprogram(name: "rintf", scope: !710, file: !710, line: 256, type: !774, flags: DIFlagPrototyped, spFlags: 0)
!994 = !DIImportedEntity(tag: DW_TAG_imported_declaration, scope: !58, entity: !995, file: !713, line: 1189)
!995 = !DISubprogram(name: "rintl", scope: !710, file: !710, line: 256, type: !778, flags: DIFlagPrototyped, spFlags: 0)
!996 = !DIImportedEntity(tag: DW_TAG_imported_declaration, scope: !58, entity: !997, file: !713, line: 1191)
!997 = !DISubprogram(name: "round", scope: !710, file: !710, line: 298, type: !711, flags: DIFlagPrototyped, spFlags: 0)
!998 = !DIImportedEntity(tag: DW_TAG_imported_declaration, scope: !58, entity: !999, file: !713, line: 1192)
!999 = !DISubprogram(name: "roundf", scope: !710, file: !710, line: 298, type: !774, flags: DIFlagPrototyped, spFlags: 0)
!1000 = !DIImportedEntity(tag: DW_TAG_imported_declaration, scope: !58, entity: !1001, file: !713, line: 1193)
!1001 = !DISubprogram(name: "roundl", scope: !710, file: !710, line: 298, type: !778, flags: DIFlagPrototyped, spFlags: 0)
!1002 = !DIImportedEntity(tag: DW_TAG_imported_declaration, scope: !58, entity: !1003, file: !713, line: 1195)
!1003 = !DISubprogram(name: "scalbln", scope: !710, file: !710, line: 290, type: !1004, flags: DIFlagPrototyped, spFlags: 0)
!1004 = !DISubroutineType(types: !1005)
!1005 = !{!103, !103, !85}
!1006 = !DIImportedEntity(tag: DW_TAG_imported_declaration, scope: !58, entity: !1007, file: !713, line: 1196)
!1007 = !DISubprogram(name: "scalblnf", scope: !710, file: !710, line: 290, type: !1008, flags: DIFlagPrototyped, spFlags: 0)
!1008 = !DISubroutineType(types: !1009)
!1009 = !{!77, !77, !85}
!1010 = !DIImportedEntity(tag: DW_TAG_imported_declaration, scope: !58, entity: !1011, file: !713, line: 1197)
!1011 = !DISubprogram(name: "scalblnl", scope: !710, file: !710, line: 290, type: !1012, flags: DIFlagPrototyped, spFlags: 0)
!1012 = !DISubroutineType(types: !1013)
!1013 = !{!519, !519, !85}
!1014 = !DIImportedEntity(tag: DW_TAG_imported_declaration, scope: !58, entity: !1015, file: !713, line: 1199)
!1015 = !DISubprogram(name: "scalbn", scope: !710, file: !710, line: 276, type: !742, flags: DIFlagPrototyped, spFlags: 0)
!1016 = !DIImportedEntity(tag: DW_TAG_imported_declaration, scope: !58, entity: !1017, file: !713, line: 1200)
!1017 = !DISubprogram(name: "scalbnf", scope: !710, file: !710, line: 276, type: !1018, flags: DIFlagPrototyped, spFlags: 0)
!1018 = !DISubroutineType(types: !1019)
!1019 = !{!77, !77, !59}
!1020 = !DIImportedEntity(tag: DW_TAG_imported_declaration, scope: !58, entity: !1021, file: !713, line: 1201)
!1021 = !DISubprogram(name: "scalbnl", scope: !710, file: !710, line: 276, type: !1022, flags: DIFlagPrototyped, spFlags: 0)
!1022 = !DISubroutineType(types: !1023)
!1023 = !{!519, !519, !59}
!1024 = !DIImportedEntity(tag: DW_TAG_imported_declaration, scope: !58, entity: !1025, file: !713, line: 1203)
!1025 = !DISubprogram(name: "tgamma", scope: !710, file: !710, line: 235, type: !711, flags: DIFlagPrototyped, spFlags: 0)
!1026 = !DIImportedEntity(tag: DW_TAG_imported_declaration, scope: !58, entity: !1027, file: !713, line: 1204)
!1027 = !DISubprogram(name: "tgammaf", scope: !710, file: !710, line: 235, type: !774, flags: DIFlagPrototyped, spFlags: 0)
!1028 = !DIImportedEntity(tag: DW_TAG_imported_declaration, scope: !58, entity: !1029, file: !713, line: 1205)
!1029 = !DISubprogram(name: "tgammal", scope: !710, file: !710, line: 235, type: !778, flags: DIFlagPrototyped, spFlags: 0)
!1030 = !DIImportedEntity(tag: DW_TAG_imported_declaration, scope: !58, entity: !1031, file: !713, line: 1207)
!1031 = !DISubprogram(name: "trunc", scope: !710, file: !710, line: 302, type: !711, flags: DIFlagPrototyped, spFlags: 0)
!1032 = !DIImportedEntity(tag: DW_TAG_imported_declaration, scope: !58, entity: !1033, file: !713, line: 1208)
!1033 = !DISubprogram(name: "truncf", scope: !710, file: !710, line: 302, type: !774, flags: DIFlagPrototyped, spFlags: 0)
!1034 = !DIImportedEntity(tag: DW_TAG_imported_declaration, scope: !58, entity: !1035, file: !713, line: 1209)
!1035 = !DISubprogram(name: "truncl", scope: !710, file: !710, line: 302, type: !778, flags: DIFlagPrototyped, spFlags: 0)
!1036 = !DIImportedEntity(tag: DW_TAG_imported_declaration, scope: !21, entity: !1037, file: !1038, line: 38)
!1037 = !DISubprogram(name: "abs", linkageName: "_ZSt3abse", scope: !58, file: !342, line: 79, type: !778, flags: DIFlagPrototyped, spFlags: 0)
!1038 = !DIFile(filename: "/usr/bin/../lib/gcc/x86_64-linux-gnu/9/../../../../include/c++/9/math.h", directory: "")
!1039 = !DIImportedEntity(tag: DW_TAG_imported_declaration, scope: !21, entity: !1040, file: !1038, line: 54)
!1040 = !DISubprogram(name: "modf", linkageName: "_ZSt4modfePe", scope: !58, file: !713, line: 380, type: !1041, flags: DIFlagPrototyped, spFlags: 0)
!1041 = !DISubroutineType(types: !1042)
!1042 = !{!519, !519, !1043}
!1043 = !DIDerivedType(tag: DW_TAG_pointer_type, baseType: !519, size: 64)
!1044 = !DIImportedEntity(tag: DW_TAG_imported_declaration, scope: !21, entity: !354, file: !1045, line: 38)
!1045 = !DIFile(filename: "/usr/bin/../lib/gcc/x86_64-linux-gnu/9/../../../../include/c++/9/stdlib.h", directory: "")
!1046 = !DIImportedEntity(tag: DW_TAG_imported_declaration, scope: !21, entity: !358, file: !1045, line: 39)
!1047 = !DIImportedEntity(tag: DW_TAG_imported_declaration, scope: !21, entity: !396, file: !1045, line: 40)
!1048 = !DIImportedEntity(tag: DW_TAG_imported_declaration, scope: !21, entity: !363, file: !1045, line: 43)
!1049 = !DIImportedEntity(tag: DW_TAG_imported_declaration, scope: !21, entity: !440, file: !1045, line: 46)
!1050 = !DIImportedEntity(tag: DW_TAG_imported_declaration, scope: !21, entity: !344, file: !1045, line: 51)
!1051 = !DIImportedEntity(tag: DW_TAG_imported_declaration, scope: !21, entity: !348, file: !1045, line: 52)
!1052 = !DIImportedEntity(tag: DW_TAG_imported_declaration, scope: !21, entity: !1037, file: !1045, line: 54)
!1053 = !DIImportedEntity(tag: DW_TAG_imported_declaration, scope: !21, entity: !365, file: !1045, line: 55)
!1054 = !DIImportedEntity(tag: DW_TAG_imported_declaration, scope: !21, entity: !369, file: !1045, line: 56)
!1055 = !DIImportedEntity(tag: DW_TAG_imported_declaration, scope: !21, entity: !373, file: !1045, line: 57)
!1056 = !DIImportedEntity(tag: DW_TAG_imported_declaration, scope: !21, entity: !377, file: !1045, line: 58)
!1057 = !DIImportedEntity(tag: DW_TAG_imported_declaration, scope: !21, entity: !388, file: !1045, line: 59)
!1058 = !DIImportedEntity(tag: DW_TAG_imported_declaration, scope: !21, entity: !524, file: !1045, line: 60)
!1059 = !DIImportedEntity(tag: DW_TAG_imported_declaration, scope: !21, entity: !400, file: !1045, line: 61)
!1060 = !DIImportedEntity(tag: DW_TAG_imported_declaration, scope: !21, entity: !404, file: !1045, line: 62)
!1061 = !DIImportedEntity(tag: DW_TAG_imported_declaration, scope: !21, entity: !408, file: !1045, line: 63)
!1062 = !DIImportedEntity(tag: DW_TAG_imported_declaration, scope: !21, entity: !412, file: !1045, line: 64)
!1063 = !DIImportedEntity(tag: DW_TAG_imported_declaration, scope: !21, entity: !416, file: !1045, line: 65)
!1064 = !DIImportedEntity(tag: DW_TAG_imported_declaration, scope: !21, entity: !420, file: !1045, line: 67)
!1065 = !DIImportedEntity(tag: DW_TAG_imported_declaration, scope: !21, entity: !424, file: !1045, line: 68)
!1066 = !DIImportedEntity(tag: DW_TAG_imported_declaration, scope: !21, entity: !432, file: !1045, line: 69)
!1067 = !DIImportedEntity(tag: DW_TAG_imported_declaration, scope: !21, entity: !436, file: !1045, line: 71)
!1068 = !DIImportedEntity(tag: DW_TAG_imported_declaration, scope: !21, entity: !442, file: !1045, line: 72)
!1069 = !DIImportedEntity(tag: DW_TAG_imported_declaration, scope: !21, entity: !446, file: !1045, line: 73)
!1070 = !DIImportedEntity(tag: DW_TAG_imported_declaration, scope: !21, entity: !450, file: !1045, line: 74)
!1071 = !DIImportedEntity(tag: DW_TAG_imported_declaration, scope: !21, entity: !454, file: !1045, line: 75)
!1072 = !DIImportedEntity(tag: DW_TAG_imported_declaration, scope: !21, entity: !460, file: !1045, line: 76)
!1073 = !DIImportedEntity(tag: DW_TAG_imported_declaration, scope: !21, entity: !464, file: !1045, line: 77)
!1074 = !DIImportedEntity(tag: DW_TAG_imported_declaration, scope: !21, entity: !468, file: !1045, line: 78)
!1075 = !DIImportedEntity(tag: DW_TAG_imported_declaration, scope: !21, entity: !470, file: !1045, line: 80)
!1076 = !DIImportedEntity(tag: DW_TAG_imported_declaration, scope: !21, entity: !478, file: !1045, line: 81)
!1077 = !DIImportedEntity(tag: DW_TAG_imported_declaration, scope: !58, entity: !1078, file: !1081, line: 58)
!1078 = !DIDerivedType(tag: DW_TAG_typedef, name: "imaxdiv_t", file: !1079, line: 275, baseType: !1080)
!1079 = !DIFile(filename: "/usr/include/inttypes.h", directory: "")
!1080 = distinct !DICompositeType(tag: DW_TAG_structure_type, file: !1079, line: 271, size: 128, flags: DIFlagFwdDecl, identifier: "_ZTS9imaxdiv_t")
!1081 = !DIFile(filename: "/usr/bin/../lib/gcc/x86_64-linux-gnu/9/../../../../include/c++/9/cinttypes", directory: "")
!1082 = !DIImportedEntity(tag: DW_TAG_imported_declaration, scope: !58, entity: !1083, file: !1081, line: 61)
!1083 = !DISubprogram(name: "imaxabs", scope: !1079, file: !1079, line: 290, type: !1084, flags: DIFlagPrototyped, spFlags: 0)
!1084 = !DISubroutineType(types: !1085)
!1085 = !{!161, !161}
!1086 = !DIImportedEntity(tag: DW_TAG_imported_declaration, scope: !58, entity: !1087, file: !1081, line: 62)
!1087 = !DISubprogram(name: "imaxdiv", scope: !1079, file: !1079, line: 293, type: !1088, flags: DIFlagPrototyped, spFlags: 0)
!1088 = !DISubroutineType(types: !1089)
!1089 = !{!1078, !161, !161}
!1090 = !DIImportedEntity(tag: DW_TAG_imported_declaration, scope: !58, entity: !1091, file: !1081, line: 68)
!1091 = !DISubprogram(name: "strtoimax", scope: !1079, file: !1079, line: 297, type: !1092, flags: DIFlagPrototyped, spFlags: 0)
!1092 = !DISubroutineType(types: !1093)
!1093 = !{!161, !430, !457, !59}
!1094 = !DIImportedEntity(tag: DW_TAG_imported_declaration, scope: !58, entity: !1095, file: !1081, line: 69)
!1095 = !DISubprogram(name: "strtoumax", scope: !1079, file: !1079, line: 301, type: !1096, flags: DIFlagPrototyped, spFlags: 0)
!1096 = !DISubroutineType(types: !1097)
!1097 = !{!647, !430, !457, !59}
!1098 = !DIImportedEntity(tag: DW_TAG_imported_declaration, scope: !58, entity: !1099, file: !1081, line: 72)
!1099 = !DISubprogram(name: "wcstoimax", scope: !1079, file: !1079, line: 305, type: !1100, flags: DIFlagPrototyped, spFlags: 0)
!1100 = !DISubroutineType(types: !1101)
!1101 = !{!161, !474, !1102, !59}
!1102 = !DIDerivedType(tag: DW_TAG_restrict_type, baseType: !1103)
!1103 = !DIDerivedType(tag: DW_TAG_pointer_type, baseType: !428, size: 64)
!1104 = !DIImportedEntity(tag: DW_TAG_imported_declaration, scope: !58, entity: !1105, file: !1081, line: 73)
!1105 = !DISubprogram(name: "wcstoumax", scope: !1079, file: !1079, line: 310, type: !1106, flags: DIFlagPrototyped, spFlags: 0)
!1106 = !DISubroutineType(types: !1107)
!1107 = !{!647, !474, !1102, !59}
!1108 = !DIImportedEntity(tag: DW_TAG_imported_declaration, scope: !58, entity: !1109, file: !1112, line: 58)
!1109 = !DIDerivedType(tag: DW_TAG_typedef, name: "max_align_t", file: !1110, line: 24, baseType: !1111)
!1110 = !DIFile(filename: "/usr/lib/llvm-12/lib/clang/12.0.0/include/__stddef_max_align_t.h", directory: "")
!1111 = distinct !DICompositeType(tag: DW_TAG_structure_type, file: !1110, line: 19, size: 256, flags: DIFlagFwdDecl, identifier: "_ZTS11max_align_t")
!1112 = !DIFile(filename: "/usr/bin/../lib/gcc/x86_64-linux-gnu/9/../../../../include/c++/9/cstddef", directory: "")
!1113 = distinct !DICompileUnit(language: DW_LANG_C_plus_plus_14, file: !1114, producer: "Ubuntu clang version 12.0.0-3ubuntu1~20.04.5", isOptimized: false, runtimeVersion: 0, emissionKind: FullDebug, enums: !4, retainedTypes: !1115, imports: !1116, splitDebugInlining: false, nameTableKind: None)
!1114 = !DIFile(filename: "/opt/glow/lib/Backends/CPU/../../LLVMIRCodeGen/libjit/libjit_conv.cpp", directory: "/opt/glow/lib/Backends/CPU")
!1115 = !{!88, !36, !82, !77, !92, !86, !78}
!1116 = !{!337, !708, !714, !716, !718, !722, !724, !726, !728, !730, !732, !734, !736, !740, !744, !746, !748, !753, !755, !757, !759, !761, !763, !765, !768, !770, !772, !776, !780, !782, !784, !786, !788, !790, !792, !794, !796, !798, !800, !804, !808, !810, !812, !814, !816, !818, !820, !822, !824, !826, !828, !830, !832, !834, !836, !838, !842, !846, !850, !852, !854, !856, !858, !860, !862, !864, !866, !868, !872, !876, !880, !882, !884, !886, !890, !894, !898, !900, !902, !904, !906, !908, !910, !912, !914, !916, !918, !920, !922, !926, !930, !934, !936, !938, !940, !942, !946, !950, !952, !954, !956, !958, !960, !962, !966, !970, !972, !974, !976, !978, !982, !986, !990, !992, !994, !996, !998, !1000, !1002, !1006, !1010, !1014, !1016, !1020, !1024, !1026, !1028, !1030, !1032, !1034, !1117, !1118, !343, !347, !353, !357, !362, !364, !368, !372, !376, !387, !391, !395, !399, !403, !407, !411, !415, !419, !423, !431, !435, !439, !441, !445, !449, !453, !459, !463, !467, !469, !477, !481, !488, !490, !494, !498, !502, !506, !511, !515, !520, !521, !522, !523, !525, !526, !527, !528, !529, !530, !1119, !1120, !1121, !1122, !1123, !1124, !1125, !1126, !1127, !1128, !1129, !1130, !1131, !1132, !1133, !1134, !1135, !1136, !1137, !1138, !1139, !1140, !1141, !1142, !1143, !1144, !1145, !1146, !1147, !1148, !1149, !1150, !589, !591, !592, !593, !594, !596, !598, !600, !602, !605, !608, !611, !614, !615, !617, !618, !622, !625, !626, !628, !630, !632, !634, !637, !640, !643, !646, !649, !1077, !1082, !1086, !1090, !1094, !1098, !1104, !1108}
!1117 = !DIImportedEntity(tag: DW_TAG_imported_declaration, scope: !1113, entity: !1037, file: !1038, line: 38)
!1118 = !DIImportedEntity(tag: DW_TAG_imported_declaration, scope: !1113, entity: !1040, file: !1038, line: 54)
!1119 = !DIImportedEntity(tag: DW_TAG_imported_declaration, scope: !1113, entity: !354, file: !1045, line: 38)
!1120 = !DIImportedEntity(tag: DW_TAG_imported_declaration, scope: !1113, entity: !358, file: !1045, line: 39)
!1121 = !DIImportedEntity(tag: DW_TAG_imported_declaration, scope: !1113, entity: !396, file: !1045, line: 40)
!1122 = !DIImportedEntity(tag: DW_TAG_imported_declaration, scope: !1113, entity: !363, file: !1045, line: 43)
!1123 = !DIImportedEntity(tag: DW_TAG_imported_declaration, scope: !1113, entity: !440, file: !1045, line: 46)
!1124 = !DIImportedEntity(tag: DW_TAG_imported_declaration, scope: !1113, entity: !344, file: !1045, line: 51)
!1125 = !DIImportedEntity(tag: DW_TAG_imported_declaration, scope: !1113, entity: !348, file: !1045, line: 52)
!1126 = !DIImportedEntity(tag: DW_TAG_imported_declaration, scope: !1113, entity: !1037, file: !1045, line: 54)
!1127 = !DIImportedEntity(tag: DW_TAG_imported_declaration, scope: !1113, entity: !365, file: !1045, line: 55)
!1128 = !DIImportedEntity(tag: DW_TAG_imported_declaration, scope: !1113, entity: !369, file: !1045, line: 56)
!1129 = !DIImportedEntity(tag: DW_TAG_imported_declaration, scope: !1113, entity: !373, file: !1045, line: 57)
!1130 = !DIImportedEntity(tag: DW_TAG_imported_declaration, scope: !1113, entity: !377, file: !1045, line: 58)
!1131 = !DIImportedEntity(tag: DW_TAG_imported_declaration, scope: !1113, entity: !388, file: !1045, line: 59)
!1132 = !DIImportedEntity(tag: DW_TAG_imported_declaration, scope: !1113, entity: !524, file: !1045, line: 60)
!1133 = !DIImportedEntity(tag: DW_TAG_imported_declaration, scope: !1113, entity: !400, file: !1045, line: 61)
!1134 = !DIImportedEntity(tag: DW_TAG_imported_declaration, scope: !1113, entity: !404, file: !1045, line: 62)
!1135 = !DIImportedEntity(tag: DW_TAG_imported_declaration, scope: !1113, entity: !408, file: !1045, line: 63)
!1136 = !DIImportedEntity(tag: DW_TAG_imported_declaration, scope: !1113, entity: !412, file: !1045, line: 64)
!1137 = !DIImportedEntity(tag: DW_TAG_imported_declaration, scope: !1113, entity: !416, file: !1045, line: 65)
!1138 = !DIImportedEntity(tag: DW_TAG_imported_declaration, scope: !1113, entity: !420, file: !1045, line: 67)
!1139 = !DIImportedEntity(tag: DW_TAG_imported_declaration, scope: !1113, entity: !424, file: !1045, line: 68)
!1140 = !DIImportedEntity(tag: DW_TAG_imported_declaration, scope: !1113, entity: !432, file: !1045, line: 69)
!1141 = !DIImportedEntity(tag: DW_TAG_imported_declaration, scope: !1113, entity: !436, file: !1045, line: 71)
!1142 = !DIImportedEntity(tag: DW_TAG_imported_declaration, scope: !1113, entity: !442, file: !1045, line: 72)
!1143 = !DIImportedEntity(tag: DW_TAG_imported_declaration, scope: !1113, entity: !446, file: !1045, line: 73)
!1144 = !DIImportedEntity(tag: DW_TAG_imported_declaration, scope: !1113, entity: !450, file: !1045, line: 74)
!1145 = !DIImportedEntity(tag: DW_TAG_imported_declaration, scope: !1113, entity: !454, file: !1045, line: 75)
!1146 = !DIImportedEntity(tag: DW_TAG_imported_declaration, scope: !1113, entity: !460, file: !1045, line: 76)
!1147 = !DIImportedEntity(tag: DW_TAG_imported_declaration, scope: !1113, entity: !464, file: !1045, line: 77)
!1148 = !DIImportedEntity(tag: DW_TAG_imported_declaration, scope: !1113, entity: !468, file: !1045, line: 78)
!1149 = !DIImportedEntity(tag: DW_TAG_imported_declaration, scope: !1113, entity: !470, file: !1045, line: 80)
!1150 = !DIImportedEntity(tag: DW_TAG_imported_declaration, scope: !1113, entity: !478, file: !1045, line: 81)
!1151 = distinct !DICompileUnit(language: DW_LANG_C_plus_plus_14, file: !1152, producer: "Ubuntu clang version 12.0.0-3ubuntu1~20.04.5", isOptimized: false, runtimeVersion: 0, emissionKind: FullDebug, enums: !4, retainedTypes: !1153, globals: !1159, imports: !1172, splitDebugInlining: false, nameTableKind: None)
!1152 = !DIFile(filename: "/opt/glow/lib/Backends/CPU/../../LLVMIRCodeGen/libjit/libjit_matmul.cpp", directory: "/opt/glow/lib/Backends/CPU")
!1153 = !{!78, !1154}
!1154 = !DIDerivedType(tag: DW_TAG_typedef, name: "float8", file: !1155, line: 37, baseType: !1156)
!1155 = !DIFile(filename: "../../LLVMIRCodeGen/libjit/libjit_defs.h", directory: "/opt/glow/lib/Backends/CPU")
!1156 = !DICompositeType(tag: DW_TAG_array_type, baseType: !77, size: 256, flags: DIFlagVector, elements: !1157)
!1157 = !{!1158}
!1158 = !DISubrange(count: 8)
!1159 = !{!1160, !1164, !1166, !1168, !1170}
!1160 = !DIGlobalVariableExpression(var: !1161, expr: !DIExpression(DW_OP_constu, 128, DW_OP_stack_value))
!1161 = distinct !DIGlobalVariable(name: "kc", scope: !171, file: !1162, line: 53, type: !1163, isLocal: true, isDefinition: true)
!1162 = !DIFile(filename: "../../LLVMIRCodeGen/libjit/libjit_matmul.cpp", directory: "/opt/glow/lib/Backends/CPU")
!1163 = !DIDerivedType(tag: DW_TAG_const_type, baseType: !59)
!1164 = !DIGlobalVariableExpression(var: !1165, expr: !DIExpression(DW_OP_constu, 4096, DW_OP_stack_value))
!1165 = distinct !DIGlobalVariable(name: "nc", scope: !171, file: !1162, line: 54, type: !1163, isLocal: true, isDefinition: true)
!1166 = !DIGlobalVariableExpression(var: !1167, expr: !DIExpression(DW_OP_constu, 256, DW_OP_stack_value))
!1167 = distinct !DIGlobalVariable(name: "mc", scope: !171, file: !1162, line: 52, type: !1163, isLocal: true, isDefinition: true)
!1168 = !DIGlobalVariableExpression(var: !1169, expr: !DIExpression(DW_OP_constu, 32, DW_OP_stack_value))
!1169 = distinct !DIGlobalVariable(name: "mr", scope: !171, file: !1162, line: 45, type: !1163, isLocal: true, isDefinition: true)
!1170 = !DIGlobalVariableExpression(var: !1171, expr: !DIExpression(DW_OP_constu, 3, DW_OP_stack_value))
!1171 = distinct !DIGlobalVariable(name: "nr", scope: !171, file: !1162, line: 47, type: !1163, isLocal: true, isDefinition: true)
!1172 = !{!337, !708, !714, !716, !718, !722, !724, !726, !728, !730, !732, !734, !736, !740, !744, !746, !748, !753, !755, !757, !759, !761, !763, !765, !768, !770, !772, !776, !780, !782, !784, !786, !788, !790, !792, !794, !796, !798, !800, !804, !808, !810, !812, !814, !816, !818, !820, !822, !824, !826, !828, !830, !832, !834, !836, !838, !842, !846, !850, !852, !854, !856, !858, !860, !862, !864, !866, !868, !872, !876, !880, !882, !884, !886, !890, !894, !898, !900, !902, !904, !906, !908, !910, !912, !914, !916, !918, !920, !922, !926, !930, !934, !936, !938, !940, !942, !946, !950, !952, !954, !956, !958, !960, !962, !966, !970, !972, !974, !976, !978, !982, !986, !990, !992, !994, !996, !998, !1000, !1002, !1006, !1010, !1014, !1016, !1020, !1024, !1026, !1028, !1030, !1032, !1034, !343, !347, !353, !357, !362, !364, !368, !372, !376, !387, !391, !395, !399, !403, !407, !411, !415, !419, !423, !431, !435, !439, !441, !445, !449, !453, !459, !463, !467, !469, !477, !481, !488, !490, !494, !498, !502, !506, !511, !515, !520, !521, !522, !523, !525, !526, !527, !528, !529, !530, !1173, !1174, !589, !591, !592, !593, !594, !596, !598, !600, !602, !605, !608, !611, !614, !615, !617, !618, !622, !625, !626, !628, !630, !632, !634, !637, !640, !643, !646, !649, !1077, !1082, !1086, !1090, !1094, !1098, !1104, !1108}
!1173 = !DIImportedEntity(tag: DW_TAG_imported_declaration, scope: !1151, entity: !1037, file: !1038, line: 38)
!1174 = !DIImportedEntity(tag: DW_TAG_imported_declaration, scope: !1151, entity: !1040, file: !1038, line: 54)
!1175 = distinct !DICompileUnit(language: DW_LANG_C_plus_plus_14, file: !1176, producer: "Ubuntu clang version 12.0.0-3ubuntu1~20.04.5", isOptimized: false, runtimeVersion: 0, emissionKind: FullDebug, enums: !4, imports: !1177, splitDebugInlining: false, nameTableKind: None)
!1176 = !DIFile(filename: "/opt/glow/lib/Backends/CPU/libjit_cpu/libjit_cpu.cpp", directory: "/opt/glow/lib/Backends/CPU")
!1177 = !{!333, !337, !343, !347, !353, !357, !362, !364, !368, !372, !376, !387, !391, !395, !399, !403, !407, !411, !415, !419, !423, !431, !435, !439, !441, !445, !449, !453, !459, !463, !467, !469, !477, !481, !488, !490, !494, !498, !502, !506, !511, !515, !520, !521, !522, !523, !525, !526, !527, !528, !529, !530, !531, !585, !589, !591, !592, !593, !594, !596, !598, !600, !602, !605, !608, !611, !614, !615, !617, !618, !622, !625, !626, !628, !630, !632, !634, !637, !640, !643, !646, !649, !651, !656, !660, !663, !668, !672, !677, !682, !688, !694, !698, !700, !705, !708, !714, !716, !718, !722, !724, !726, !728, !730, !732, !734, !736, !740, !744, !746, !748, !753, !755, !757, !759, !761, !763, !765, !768, !770, !772, !776, !780, !782, !784, !786, !788, !790, !792, !794, !796, !798, !800, !804, !808, !810, !812, !814, !816, !818, !820, !822, !824, !826, !828, !830, !832, !834, !836, !838, !842, !846, !850, !852, !854, !856, !858, !860, !862, !864, !866, !868, !872, !876, !880, !882, !884, !886, !890, !894, !898, !900, !902, !904, !906, !908, !910, !912, !914, !916, !918, !920, !922, !926, !930, !934, !936, !938, !940, !942, !946, !950, !952, !954, !956, !958, !960, !962, !966, !970, !972, !974, !976, !978, !982, !986, !990, !992, !994, !996, !998, !1000, !1002, !1006, !1010, !1014, !1016, !1020, !1024, !1026, !1028, !1030, !1032, !1034, !1178, !1179, !1180, !1181, !1182, !1183, !1184, !1185, !1186, !1187, !1188, !1189, !1190, !1191, !1192, !1193, !1194, !1195, !1196, !1197, !1198, !1199, !1200, !1201, !1202, !1203, !1204, !1205, !1206, !1207, !1208, !1209, !1210, !1211, !1077, !1082, !1086, !1090, !1094, !1098, !1104, !1108}
!1178 = !DIImportedEntity(tag: DW_TAG_imported_declaration, scope: !1175, entity: !1037, file: !1038, line: 38)
!1179 = !DIImportedEntity(tag: DW_TAG_imported_declaration, scope: !1175, entity: !1040, file: !1038, line: 54)
!1180 = !DIImportedEntity(tag: DW_TAG_imported_declaration, scope: !1175, entity: !354, file: !1045, line: 38)
!1181 = !DIImportedEntity(tag: DW_TAG_imported_declaration, scope: !1175, entity: !358, file: !1045, line: 39)
!1182 = !DIImportedEntity(tag: DW_TAG_imported_declaration, scope: !1175, entity: !396, file: !1045, line: 40)
!1183 = !DIImportedEntity(tag: DW_TAG_imported_declaration, scope: !1175, entity: !363, file: !1045, line: 43)
!1184 = !DIImportedEntity(tag: DW_TAG_imported_declaration, scope: !1175, entity: !440, file: !1045, line: 46)
!1185 = !DIImportedEntity(tag: DW_TAG_imported_declaration, scope: !1175, entity: !344, file: !1045, line: 51)
!1186 = !DIImportedEntity(tag: DW_TAG_imported_declaration, scope: !1175, entity: !348, file: !1045, line: 52)
!1187 = !DIImportedEntity(tag: DW_TAG_imported_declaration, scope: !1175, entity: !1037, file: !1045, line: 54)
!1188 = !DIImportedEntity(tag: DW_TAG_imported_declaration, scope: !1175, entity: !365, file: !1045, line: 55)
!1189 = !DIImportedEntity(tag: DW_TAG_imported_declaration, scope: !1175, entity: !369, file: !1045, line: 56)
!1190 = !DIImportedEntity(tag: DW_TAG_imported_declaration, scope: !1175, entity: !373, file: !1045, line: 57)
!1191 = !DIImportedEntity(tag: DW_TAG_imported_declaration, scope: !1175, entity: !377, file: !1045, line: 58)
!1192 = !DIImportedEntity(tag: DW_TAG_imported_declaration, scope: !1175, entity: !388, file: !1045, line: 59)
!1193 = !DIImportedEntity(tag: DW_TAG_imported_declaration, scope: !1175, entity: !524, file: !1045, line: 60)
!1194 = !DIImportedEntity(tag: DW_TAG_imported_declaration, scope: !1175, entity: !400, file: !1045, line: 61)
!1195 = !DIImportedEntity(tag: DW_TAG_imported_declaration, scope: !1175, entity: !404, file: !1045, line: 62)
!1196 = !DIImportedEntity(tag: DW_TAG_imported_declaration, scope: !1175, entity: !408, file: !1045, line: 63)
!1197 = !DIImportedEntity(tag: DW_TAG_imported_declaration, scope: !1175, entity: !412, file: !1045, line: 64)
!1198 = !DIImportedEntity(tag: DW_TAG_imported_declaration, scope: !1175, entity: !416, file: !1045, line: 65)
!1199 = !DIImportedEntity(tag: DW_TAG_imported_declaration, scope: !1175, entity: !420, file: !1045, line: 67)
!1200 = !DIImportedEntity(tag: DW_TAG_imported_declaration, scope: !1175, entity: !424, file: !1045, line: 68)
!1201 = !DIImportedEntity(tag: DW_TAG_imported_declaration, scope: !1175, entity: !432, file: !1045, line: 69)
!1202 = !DIImportedEntity(tag: DW_TAG_imported_declaration, scope: !1175, entity: !436, file: !1045, line: 71)
!1203 = !DIImportedEntity(tag: DW_TAG_imported_declaration, scope: !1175, entity: !442, file: !1045, line: 72)
!1204 = !DIImportedEntity(tag: DW_TAG_imported_declaration, scope: !1175, entity: !446, file: !1045, line: 73)
!1205 = !DIImportedEntity(tag: DW_TAG_imported_declaration, scope: !1175, entity: !450, file: !1045, line: 74)
!1206 = !DIImportedEntity(tag: DW_TAG_imported_declaration, scope: !1175, entity: !454, file: !1045, line: 75)
!1207 = !DIImportedEntity(tag: DW_TAG_imported_declaration, scope: !1175, entity: !460, file: !1045, line: 76)
!1208 = !DIImportedEntity(tag: DW_TAG_imported_declaration, scope: !1175, entity: !464, file: !1045, line: 77)
!1209 = !DIImportedEntity(tag: DW_TAG_imported_declaration, scope: !1175, entity: !468, file: !1045, line: 78)
!1210 = !DIImportedEntity(tag: DW_TAG_imported_declaration, scope: !1175, entity: !470, file: !1045, line: 80)
!1211 = !DIImportedEntity(tag: DW_TAG_imported_declaration, scope: !1175, entity: !478, file: !1045, line: 81)
!1212 = distinct !DICompileUnit(language: DW_LANG_C_plus_plus_14, file: !1213, producer: "Ubuntu clang version 12.0.0-3ubuntu1~20.04.5", isOptimized: false, runtimeVersion: 0, emissionKind: FullDebug, enums: !4, retainedTypes: !1214, imports: !1220, splitDebugInlining: false, nameTableKind: None)
!1213 = !DIFile(filename: "/opt/glow/lib/Backends/CPU/libjit_cpu/libjit_cpu_conv.cpp", directory: "/opt/glow/lib/Backends/CPU")
!1214 = !{!36, !1215, !1217, !1219, !88}
!1215 = !DIDerivedType(tag: DW_TAG_typedef, name: "float8", file: !1216, line: 37, baseType: !1156)
!1216 = !DIFile(filename: "libjit_cpu/../../../LLVMIRCodeGen/libjit/libjit_defs.h", directory: "/opt/glow/lib/Backends/CPU")
!1217 = !DIDerivedType(tag: DW_TAG_pointer_type, baseType: !1218, size: 64)
!1218 = !DIDerivedType(tag: DW_TAG_const_type, baseType: !1215)
!1219 = !DIDerivedType(tag: DW_TAG_pointer_type, baseType: !1215, size: 64)
!1220 = !{!337, !708, !714, !716, !718, !722, !724, !726, !728, !730, !732, !734, !736, !740, !744, !746, !748, !753, !755, !757, !759, !761, !763, !765, !768, !770, !772, !776, !780, !782, !784, !786, !788, !790, !792, !794, !796, !798, !800, !804, !808, !810, !812, !814, !816, !818, !820, !822, !824, !826, !828, !830, !832, !834, !836, !838, !842, !846, !850, !852, !854, !856, !858, !860, !862, !864, !866, !868, !872, !876, !880, !882, !884, !886, !890, !894, !898, !900, !902, !904, !906, !908, !910, !912, !914, !916, !918, !920, !922, !926, !930, !934, !936, !938, !940, !942, !946, !950, !952, !954, !956, !958, !960, !962, !966, !970, !972, !974, !976, !978, !982, !986, !990, !992, !994, !996, !998, !1000, !1002, !1006, !1010, !1014, !1016, !1020, !1024, !1026, !1028, !1030, !1032, !1034, !1221, !1222, !343, !347, !353, !357, !362, !364, !368, !372, !376, !387, !391, !395, !399, !403, !407, !411, !415, !419, !423, !431, !435, !439, !441, !445, !449, !453, !459, !463, !467, !469, !477, !481, !488, !490, !494, !498, !502, !506, !511, !515, !520, !521, !522, !523, !525, !526, !527, !528, !529, !530, !1223, !1224, !1225, !1226, !1227, !1228, !1229, !1230, !1231, !1232, !1233, !1234, !1235, !1236, !1237, !1238, !1239, !1240, !1241, !1242, !1243, !1244, !1245, !1246, !1247, !1248, !1249, !1250, !1251, !1252, !1253, !1254, !589, !591, !592, !593, !594, !596, !598, !600, !602, !605, !608, !611, !614, !615, !617, !618, !622, !625, !626, !628, !630, !632, !634, !637, !640, !643, !646, !649, !1077, !1082, !1086, !1090, !1094, !1098, !1104, !1108}
!1221 = !DIImportedEntity(tag: DW_TAG_imported_declaration, scope: !1212, entity: !1037, file: !1038, line: 38)
!1222 = !DIImportedEntity(tag: DW_TAG_imported_declaration, scope: !1212, entity: !1040, file: !1038, line: 54)
!1223 = !DIImportedEntity(tag: DW_TAG_imported_declaration, scope: !1212, entity: !354, file: !1045, line: 38)
!1224 = !DIImportedEntity(tag: DW_TAG_imported_declaration, scope: !1212, entity: !358, file: !1045, line: 39)
!1225 = !DIImportedEntity(tag: DW_TAG_imported_declaration, scope: !1212, entity: !396, file: !1045, line: 40)
!1226 = !DIImportedEntity(tag: DW_TAG_imported_declaration, scope: !1212, entity: !363, file: !1045, line: 43)
!1227 = !DIImportedEntity(tag: DW_TAG_imported_declaration, scope: !1212, entity: !440, file: !1045, line: 46)
!1228 = !DIImportedEntity(tag: DW_TAG_imported_declaration, scope: !1212, entity: !344, file: !1045, line: 51)
!1229 = !DIImportedEntity(tag: DW_TAG_imported_declaration, scope: !1212, entity: !348, file: !1045, line: 52)
!1230 = !DIImportedEntity(tag: DW_TAG_imported_declaration, scope: !1212, entity: !1037, file: !1045, line: 54)
!1231 = !DIImportedEntity(tag: DW_TAG_imported_declaration, scope: !1212, entity: !365, file: !1045, line: 55)
!1232 = !DIImportedEntity(tag: DW_TAG_imported_declaration, scope: !1212, entity: !369, file: !1045, line: 56)
!1233 = !DIImportedEntity(tag: DW_TAG_imported_declaration, scope: !1212, entity: !373, file: !1045, line: 57)
!1234 = !DIImportedEntity(tag: DW_TAG_imported_declaration, scope: !1212, entity: !377, file: !1045, line: 58)
!1235 = !DIImportedEntity(tag: DW_TAG_imported_declaration, scope: !1212, entity: !388, file: !1045, line: 59)
!1236 = !DIImportedEntity(tag: DW_TAG_imported_declaration, scope: !1212, entity: !524, file: !1045, line: 60)
!1237 = !DIImportedEntity(tag: DW_TAG_imported_declaration, scope: !1212, entity: !400, file: !1045, line: 61)
!1238 = !DIImportedEntity(tag: DW_TAG_imported_declaration, scope: !1212, entity: !404, file: !1045, line: 62)
!1239 = !DIImportedEntity(tag: DW_TAG_imported_declaration, scope: !1212, entity: !408, file: !1045, line: 63)
!1240 = !DIImportedEntity(tag: DW_TAG_imported_declaration, scope: !1212, entity: !412, file: !1045, line: 64)
!1241 = !DIImportedEntity(tag: DW_TAG_imported_declaration, scope: !1212, entity: !416, file: !1045, line: 65)
!1242 = !DIImportedEntity(tag: DW_TAG_imported_declaration, scope: !1212, entity: !420, file: !1045, line: 67)
!1243 = !DIImportedEntity(tag: DW_TAG_imported_declaration, scope: !1212, entity: !424, file: !1045, line: 68)
!1244 = !DIImportedEntity(tag: DW_TAG_imported_declaration, scope: !1212, entity: !432, file: !1045, line: 69)
!1245 = !DIImportedEntity(tag: DW_TAG_imported_declaration, scope: !1212, entity: !436, file: !1045, line: 71)
!1246 = !DIImportedEntity(tag: DW_TAG_imported_declaration, scope: !1212, entity: !442, file: !1045, line: 72)
!1247 = !DIImportedEntity(tag: DW_TAG_imported_declaration, scope: !1212, entity: !446, file: !1045, line: 73)
!1248 = !DIImportedEntity(tag: DW_TAG_imported_declaration, scope: !1212, entity: !450, file: !1045, line: 74)
!1249 = !DIImportedEntity(tag: DW_TAG_imported_declaration, scope: !1212, entity: !454, file: !1045, line: 75)
!1250 = !DIImportedEntity(tag: DW_TAG_imported_declaration, scope: !1212, entity: !460, file: !1045, line: 76)
!1251 = !DIImportedEntity(tag: DW_TAG_imported_declaration, scope: !1212, entity: !464, file: !1045, line: 77)
!1252 = !DIImportedEntity(tag: DW_TAG_imported_declaration, scope: !1212, entity: !468, file: !1045, line: 78)
!1253 = !DIImportedEntity(tag: DW_TAG_imported_declaration, scope: !1212, entity: !470, file: !1045, line: 80)
!1254 = !DIImportedEntity(tag: DW_TAG_imported_declaration, scope: !1212, entity: !478, file: !1045, line: 81)
!1255 = !{!"Ubuntu clang version 12.0.0-3ubuntu1~20.04.5"}
!1256 = !{i32 4, !"Debug Info Version", i32 3}
!1257 = !{i32 4, !"Dwarf Version", i32 4}
!1258 = !{i32 4, !"PIC Level", i32 2}
!1259 = distinct !DISubprogram(name: "libjit_getXY", linkageName: "_Z12libjit_getXYPKmmm", scope: !1155, file: !1155, line: 109, type: !1260, scopeLine: 109, flags: DIFlagPrototyped, spFlags: DISPFlagDefinition, unit: !21, retainedNodes: !4)
!1260 = !DISubroutineType(types: !1261)
!1261 = !{!36, !230, !36, !36}
!1262 = !DILocalVariable(name: "dims", arg: 1, scope: !1259, file: !1155, line: 109, type: !230)
!1263 = !DILocation(line: 0, scope: !1259)
!1264 = !DILocalVariable(name: "x", arg: 2, scope: !1259, file: !1155, line: 109, type: !36)
!1265 = !DILocalVariable(name: "y", arg: 3, scope: !1259, file: !1155, line: 109, type: !36)
!1266 = !DILocation(line: 110, column: 15, scope: !1259)
!1267 = !DILocation(line: 110, column: 13, scope: !1259)
!1268 = !DILocation(line: 110, column: 24, scope: !1259)
!1269 = !DILocation(line: 110, column: 3, scope: !1259)
!1270 = distinct !DISubprogram(name: "libjit_fc_i8_i32", scope: !1162, file: !1162, line: 395, type: !1271, scopeLine: 402, flags: DIFlagPrototyped, spFlags: DISPFlagDefinition, unit: !1151, retainedNodes: !4)
!1271 = !DISubroutineType(types: !1272)
!1272 = !{null, !95, !1273, !1273, !1275, !230, !230, !230, !230, !92, !92, !92, !92, !92, !92, !92, !92, !92, !92}
!1273 = !DIDerivedType(tag: DW_TAG_pointer_type, baseType: !1274, size: 64)
!1274 = !DIDerivedType(tag: DW_TAG_const_type, baseType: !78)
!1275 = !DIDerivedType(tag: DW_TAG_pointer_type, baseType: !1276, size: 64)
!1276 = !DIDerivedType(tag: DW_TAG_const_type, baseType: !92)
!1277 = !DILocalVariable(name: "outW", arg: 1, scope: !1270, file: !1162, line: 395, type: !95)
!1278 = !DILocation(line: 0, scope: !1270)
!1279 = !DILocalVariable(name: "inW", arg: 2, scope: !1270, file: !1162, line: 395, type: !1273)
!1280 = !DILocalVariable(name: "weightsW", arg: 3, scope: !1270, file: !1162, line: 395, type: !1273)
!1281 = !DILocalVariable(name: "biasW", arg: 4, scope: !1270, file: !1162, line: 396, type: !1275)
!1282 = !DILocalVariable(name: "outWdims", arg: 5, scope: !1270, file: !1162, line: 396, type: !230)
!1283 = !DILocalVariable(name: "inWdims", arg: 6, scope: !1270, file: !1162, line: 397, type: !230)
!1284 = !DILocalVariable(name: "weightsWdims", arg: 7, scope: !1270, file: !1162, line: 397, type: !230)
!1285 = !DILocalVariable(name: "biasWdims", arg: 8, scope: !1270, file: !1162, line: 398, type: !230)
!1286 = !DILocalVariable(name: "outOffset", arg: 9, scope: !1270, file: !1162, line: 398, type: !92)
!1287 = !DILocalVariable(name: "inOffset", arg: 10, scope: !1270, file: !1162, line: 399, type: !92)
!1288 = !DILocalVariable(name: "weightsOffset", arg: 11, scope: !1270, file: !1162, line: 399, type: !92)
!1289 = !DILocalVariable(name: "biasOffset", arg: 12, scope: !1270, file: !1162, line: 400, type: !92)
!1290 = !DILocalVariable(name: "biasPre", arg: 13, scope: !1270, file: !1162, line: 400, type: !92)
!1291 = !DILocalVariable(name: "biasPost", arg: 14, scope: !1270, file: !1162, line: 400, type: !92)
!1292 = !DILocalVariable(name: "biasScale", arg: 15, scope: !1270, file: !1162, line: 401, type: !92)
!1293 = !DILocalVariable(name: "outPre", arg: 16, scope: !1270, file: !1162, line: 401, type: !92)
!1294 = !DILocalVariable(name: "outPost", arg: 17, scope: !1270, file: !1162, line: 401, type: !92)
!1295 = !DILocalVariable(name: "outScale", arg: 18, scope: !1270, file: !1162, line: 402, type: !92)
!1296 = !DILocation(line: 403, column: 3, scope: !1270)
!1297 = !DILocation(line: 407, column: 1, scope: !1270)
!1298 = distinct !DISubprogram(name: "libjit_fc_generic<signed char, int>", linkageName: "_ZN12_GLOBAL__N_117libjit_fc_genericIaiEEvPT_PKS1_S4_PKT0_PKmS9_S9_S9_iiiiiiiiii", scope: !171, file: !1162, line: 255, type: !1299, scopeLine: 262, flags: DIFlagPrototyped, spFlags: DISPFlagLocalToUnit | DISPFlagDefinition, unit: !1151, templateParams: !1305, retainedNodes: !4)
!1299 = !DISubroutineType(types: !1300)
!1300 = !{null, !1301, !1302, !1302, !1304, !230, !230, !230, !230, !92, !92, !92, !92, !92, !92, !92, !92, !92, !92}
!1301 = !DIDerivedType(tag: DW_TAG_pointer_type, baseType: !81, size: 64)
!1302 = !DIDerivedType(tag: DW_TAG_pointer_type, baseType: !1303, size: 64)
!1303 = !DIDerivedType(tag: DW_TAG_const_type, baseType: !81)
!1304 = !DIDerivedType(tag: DW_TAG_pointer_type, baseType: !1163, size: 64)
!1305 = !{!1306, !1307}
!1306 = !DITemplateTypeParameter(name: "ElemTy", type: !81)
!1307 = !DITemplateTypeParameter(name: "BiasElemTy", type: !59)
!1308 = !DILocalVariable(name: "outW", arg: 1, scope: !1298, file: !1162, line: 255, type: !1301)
!1309 = !DILocation(line: 0, scope: !1298)
!1310 = !DILocalVariable(name: "inW", arg: 2, scope: !1298, file: !1162, line: 255, type: !1302)
!1311 = !DILocalVariable(name: "weightsW", arg: 3, scope: !1298, file: !1162, line: 255, type: !1302)
!1312 = !DILocalVariable(name: "biasW", arg: 4, scope: !1298, file: !1162, line: 256, type: !1304)
!1313 = !DILocalVariable(name: "outWdims", arg: 5, scope: !1298, file: !1162, line: 256, type: !230)
!1314 = !DILocalVariable(name: "inWdims", arg: 6, scope: !1298, file: !1162, line: 257, type: !230)
!1315 = !DILocalVariable(name: "weightsWdims", arg: 7, scope: !1298, file: !1162, line: 257, type: !230)
!1316 = !DILocalVariable(name: "biasWdims", arg: 8, scope: !1298, file: !1162, line: 258, type: !230)
!1317 = !DILocalVariable(name: "outOffset", arg: 9, scope: !1298, file: !1162, line: 258, type: !92)
!1318 = !DILocalVariable(name: "inOffset", arg: 10, scope: !1298, file: !1162, line: 259, type: !92)
!1319 = !DILocalVariable(name: "weightsOffset", arg: 11, scope: !1298, file: !1162, line: 259, type: !92)
!1320 = !DILocalVariable(name: "biasOffset", arg: 12, scope: !1298, file: !1162, line: 260, type: !92)
!1321 = !DILocalVariable(name: "biasPre", arg: 13, scope: !1298, file: !1162, line: 260, type: !92)
!1322 = !DILocalVariable(name: "biasPost", arg: 14, scope: !1298, file: !1162, line: 260, type: !92)
!1323 = !DILocalVariable(name: "biasScale", arg: 15, scope: !1298, file: !1162, line: 261, type: !92)
!1324 = !DILocalVariable(name: "outPre", arg: 16, scope: !1298, file: !1162, line: 261, type: !92)
!1325 = !DILocalVariable(name: "outPost", arg: 17, scope: !1298, file: !1162, line: 261, type: !92)
!1326 = !DILocalVariable(name: "outScale", arg: 18, scope: !1298, file: !1162, line: 262, type: !92)
!1327 = !DILocalVariable(name: "in_w", scope: !1298, file: !1162, line: 263, type: !36)
!1328 = !DILocalVariable(name: "out_h", scope: !1298, file: !1162, line: 264, type: !36)
!1329 = !DILocalVariable(name: "out_w", scope: !1298, file: !1162, line: 265, type: !36)
!1330 = !DILocalVariable(name: "i", scope: !1331, file: !1162, line: 266, type: !86)
!1331 = distinct !DILexicalBlock(scope: !1298, file: !1162, line: 266, column: 3)
!1332 = !DILocation(line: 0, scope: !1331)
!1333 = !DILocalVariable(name: "j", scope: !1334, file: !1162, line: 267, type: !86)
!1334 = distinct !DILexicalBlock(scope: !1335, file: !1162, line: 267, column: 5)
!1335 = distinct !DILexicalBlock(scope: !1336, file: !1162, line: 266, column: 38)
!1336 = distinct !DILexicalBlock(scope: !1331, file: !1162, line: 266, column: 3)
!1337 = !DILocation(line: 0, scope: !1334)
!1338 = !DILocation(line: 12, scope: !1298)
!1339 = !DILocation(line: 268, column: 43, scope: !1340)
!1340 = distinct !DILexicalBlock(scope: !1341, file: !1162, line: 267, column: 40)
!1341 = distinct !DILexicalBlock(scope: !1334, file: !1162, line: 267, column: 5)
!1342 = !DILocalVariable(name: "input", arg: 1, scope: !1343, file: !1155, line: 159, type: !59)
!1343 = distinct !DISubprogram(name: "libjit_scale<int, int>", linkageName: "_ZL12libjit_scaleIiiET0_T_iiii", scope: !1155, file: !1155, line: 159, type: !1344, scopeLine: 160, flags: DIFlagPrototyped, spFlags: DISPFlagLocalToUnit | DISPFlagDefinition, unit: !1151, templateParams: !1346, retainedNodes: !4)
!1344 = !DISubroutineType(types: !1345)
!1345 = !{!59, !59, !92, !92, !92, !92}
!1346 = !{!1347, !1348}
!1347 = !DITemplateTypeParameter(name: "SrcTy", type: !59)
!1348 = !DITemplateTypeParameter(name: "DestTy", type: !59)
!1349 = !DILocation(line: 0, scope: !1343, inlinedAt: !1350)
!1350 = distinct !DILocation(line: 268, column: 21, scope: !1340)
!1351 = !DILocalVariable(name: "pre", arg: 2, scope: !1343, file: !1155, line: 159, type: !92)
!1352 = !DILocalVariable(name: "post", arg: 3, scope: !1343, file: !1155, line: 159, type: !92)
!1353 = !DILocalVariable(name: "scale", arg: 4, scope: !1343, file: !1155, line: 160, type: !92)
!1354 = !DILocalVariable(name: "offset", arg: 5, scope: !1343, file: !1155, line: 160, type: !92)
!1355 = !DILocalVariable(name: "rtn", scope: !1343, file: !1155, line: 164, type: !59)
!1356 = !DILocalVariable(name: "sum", scope: !1340, file: !1162, line: 268, type: !92)
!1357 = !DILocation(line: 0, scope: !1340)
!1358 = !DILocalVariable(name: "k", scope: !1359, file: !1162, line: 270, type: !86)
!1359 = distinct !DILexicalBlock(scope: !1340, file: !1162, line: 270, column: 7)
!1360 = !DILocation(line: 0, scope: !1359)
!1361 = !DILocation(line: 271, column: 25, scope: !1362)
!1362 = distinct !DILexicalBlock(scope: !1363, file: !1162, line: 270, column: 41)
!1363 = distinct !DILexicalBlock(scope: !1359, file: !1162, line: 270, column: 7)
!1364 = !DILocation(line: 271, column: 21, scope: !1362)
!1365 = !DILocalVariable(name: "I", scope: !1362, file: !1162, line: 271, type: !92)
!1366 = !DILocation(line: 0, scope: !1362)
!1367 = !DILocation(line: 272, column: 30, scope: !1362)
!1368 = !DILocalVariable(name: "W", scope: !1362, file: !1162, line: 272, type: !92)
!1369 = !DILocation(line: 273, column: 19, scope: !1362)
!1370 = !DILocation(line: 272, column: 21, scope: !1362)
!1371 = !DILocation(line: 273, column: 31, scope: !1362)
!1372 = !DILocation(line: 273, column: 13, scope: !1362)
!1373 = !DILocation(line: 270, column: 37, scope: !1363)
!1374 = !DILocation(line: 270, column: 28, scope: !1363)
!1375 = !DILocation(line: 270, column: 7, scope: !1359)
!1376 = distinct !{!1376, !1375, !1377, !1378}
!1377 = !DILocation(line: 274, column: 7, scope: !1359)
!1378 = !{!"llvm.loop.mustprogress"}
!1379 = !DILocation(line: 0, scope: !1343, inlinedAt: !1380)
!1380 = distinct !DILocation(line: 276, column: 11, scope: !1340)
!1381 = !DILocation(line: 172, column: 20, scope: !1343, inlinedAt: !1380)
!1382 = !DILocation(line: 172, column: 28, scope: !1343, inlinedAt: !1380)
!1383 = !DILocation(line: 172, column: 37, scope: !1343, inlinedAt: !1380)
!1384 = !DILocation(line: 172, column: 44, scope: !1343, inlinedAt: !1380)
!1385 = !DILocation(line: 172, column: 53, scope: !1343, inlinedAt: !1380)
!1386 = !DILocalVariable(name: "scaledSum", scope: !1340, file: !1162, line: 275, type: !92)
!1387 = !DILocalVariable(name: "val", arg: 1, scope: !1388, file: !1155, line: 148, type: !92)
!1388 = distinct !DISubprogram(name: "libjit_clip_i8", linkageName: "_ZL14libjit_clip_i8i", scope: !1155, file: !1155, line: 148, type: !1389, scopeLine: 148, flags: DIFlagPrototyped, spFlags: DISPFlagLocalToUnit | DISPFlagDefinition, unit: !1151, retainedNodes: !4)
!1389 = !DISubroutineType(types: !1390)
!1390 = !{!78, !92}
!1391 = !DILocation(line: 0, scope: !1388, inlinedAt: !1392)
!1392 = distinct !DILocation(line: 277, column: 44, scope: !1340)
!1393 = !DILocation(line: 148, column: 53, scope: !1388, inlinedAt: !1392)
!1394 = !DILocation(line: 277, column: 12, scope: !1340)
!1395 = !DILocation(line: 277, column: 7, scope: !1340)
!1396 = !DILocation(line: 277, column: 42, scope: !1340)
!1397 = !DILocation(line: 267, column: 36, scope: !1341)
!1398 = !DILocation(line: 267, column: 26, scope: !1341)
!1399 = !DILocation(line: 267, column: 5, scope: !1334)
!1400 = distinct !{!1400, !1399, !1401, !1378}
!1401 = !DILocation(line: 278, column: 5, scope: !1334)
!1402 = !DILocation(line: 280, column: 1, scope: !1298)
!1403 = distinct !DISubprogram(name: "model_69", scope: !3, file: !3, type: !1404, flags: DIFlagPrototyped, spFlags: DISPFlagLocalToUnit | DISPFlagDefinition | DISPFlagOptimized, unit: !2, retainedNodes: !1407)
!1404 = !DISubroutineType(types: !1405)
!1405 = !{!19, !1406, !1406, !1406}
!1406 = !DIDerivedType(tag: DW_TAG_pointer_type, baseType: !9, size: 64)
!1407 = !{!1408, !1409, !1410}
!1408 = !DILocalVariable(name: "arg1", arg: 1, scope: !1403, file: !3, line: 12, type: !1406)
!1409 = !DILocalVariable(name: "arg2", arg: 2, scope: !1403, file: !3, line: 12, type: !1406)
!1410 = !DILocalVariable(name: "arg3", arg: 3, scope: !1403, file: !3, line: 12, type: !1406)
!1411 = !DILocation(line: 0, scope: !1403)
!1412 = !DILocation(line: 13, scope: !1413, inlinedAt: !1418)
!1413 = distinct !DISubprogram(name: "main", scope: !3, file: !3, line: 12, type: !1414, scopeLine: 12, flags: DIFlagPrototyped, spFlags: DISPFlagLocalToUnit | DISPFlagDefinition | DISPFlagOptimized, unit: !2, retainedNodes: !4)
!1414 = !DISubroutineType(types: !1415)
!1415 = !{!19, !1406, !1406, !1406, !1416}
!1416 = !DIDerivedType(tag: DW_TAG_pointer_type, baseType: !1417, size: 64)
!1417 = !DIBasicType(name: "size_t", size: 64, encoding: DW_ATE_unsigned)
!1418 = distinct !DILocation(line: 12, scope: !1403)
!1419 = !DILocation(line: 12, scope: !1403)
